ARM GAS  C:\Users\kopusov.FT\AppData\Local\Temp\ccN74RdE.s 			page 1


   1              		.syntax unified
   2              		.cpu cortex-m3
   3              		.fpu softvfp
   4              		.eabi_attribute 20, 1
   5              		.eabi_attribute 21, 1
   6              		.eabi_attribute 23, 3
   7              		.eabi_attribute 24, 1
   8              		.eabi_attribute 25, 1
   9              		.eabi_attribute 26, 1
  10              		.eabi_attribute 30, 1
  11              		.eabi_attribute 34, 1
  12              		.eabi_attribute 18, 4
  13              		.thumb
  14              		.file	"cyfitter_cfg.c"
  15              		.text
  16              	.Ltext0:
  17              		.cfi_sections	.debug_frame
  18              		.section	.text.CyClockStartupError,"ax",%progbits
  19              		.align	2
  20              		.thumb
  21              		.thumb_func
  22              		.type	CyClockStartupError, %function
  23              	CyClockStartupError:
  24              	.LFB3:
  25              		.file 1 "Generated_Source\\PSoC5\\cyfitter_cfg.c"
   1:Generated_Source\PSoC5/cyfitter_cfg.c **** /*******************************************************************************
   2:Generated_Source\PSoC5/cyfitter_cfg.c **** * File Name: cyfitter_cfg.c
   3:Generated_Source\PSoC5/cyfitter_cfg.c **** * 
   4:Generated_Source\PSoC5/cyfitter_cfg.c **** * PSoC Creator  4.0
   5:Generated_Source\PSoC5/cyfitter_cfg.c **** *
   6:Generated_Source\PSoC5/cyfitter_cfg.c **** * Description:
   7:Generated_Source\PSoC5/cyfitter_cfg.c **** * This file contains device initialization code.
   8:Generated_Source\PSoC5/cyfitter_cfg.c **** * Except for the user defined sections in CyClockStartupError(), this file should not be modified.
   9:Generated_Source\PSoC5/cyfitter_cfg.c **** * This file is automatically generated by PSoC Creator.
  10:Generated_Source\PSoC5/cyfitter_cfg.c **** *
  11:Generated_Source\PSoC5/cyfitter_cfg.c **** ********************************************************************************
  12:Generated_Source\PSoC5/cyfitter_cfg.c **** * Copyright (c) 2007-2016 Cypress Semiconductor.  All rights reserved.
  13:Generated_Source\PSoC5/cyfitter_cfg.c **** * You may use this file only in accordance with the license, terms, conditions, 
  14:Generated_Source\PSoC5/cyfitter_cfg.c **** * disclaimers, and limitations in the end user license agreement accompanying 
  15:Generated_Source\PSoC5/cyfitter_cfg.c **** * the software package with which this file was provided.
  16:Generated_Source\PSoC5/cyfitter_cfg.c **** ********************************************************************************/
  17:Generated_Source\PSoC5/cyfitter_cfg.c **** 
  18:Generated_Source\PSoC5/cyfitter_cfg.c **** #include <string.h>
  19:Generated_Source\PSoC5/cyfitter_cfg.c **** #include "cytypes.h"
  20:Generated_Source\PSoC5/cyfitter_cfg.c **** #include "cydevice_trm.h"
  21:Generated_Source\PSoC5/cyfitter_cfg.c **** #include "cyfitter.h"
  22:Generated_Source\PSoC5/cyfitter_cfg.c **** #include "CyLib.h"
  23:Generated_Source\PSoC5/cyfitter_cfg.c **** #include "cyfitter_cfg.h"
  24:Generated_Source\PSoC5/cyfitter_cfg.c **** #include "cyapicallbacks.h"
  25:Generated_Source\PSoC5/cyfitter_cfg.c **** 
  26:Generated_Source\PSoC5/cyfitter_cfg.c **** #define CY_NEED_CYCLOCKSTARTUPERROR 1
  27:Generated_Source\PSoC5/cyfitter_cfg.c **** 
  28:Generated_Source\PSoC5/cyfitter_cfg.c **** 
  29:Generated_Source\PSoC5/cyfitter_cfg.c **** #if defined(__GNUC__) || defined(__ARMCC_VERSION)
  30:Generated_Source\PSoC5/cyfitter_cfg.c ****     #define CYPACKED 
  31:Generated_Source\PSoC5/cyfitter_cfg.c ****     #define CYPACKED_ATTR __attribute__ ((packed))
  32:Generated_Source\PSoC5/cyfitter_cfg.c ****     #define CYALIGNED __attribute__ ((aligned))
ARM GAS  C:\Users\kopusov.FT\AppData\Local\Temp\ccN74RdE.s 			page 2


  33:Generated_Source\PSoC5/cyfitter_cfg.c ****     #define CY_CFG_UNUSED __attribute__ ((unused))
  34:Generated_Source\PSoC5/cyfitter_cfg.c ****     #ifndef CY_CFG_SECTION
  35:Generated_Source\PSoC5/cyfitter_cfg.c ****         #define CY_CFG_SECTION __attribute__ ((section(".psocinit")))
  36:Generated_Source\PSoC5/cyfitter_cfg.c ****     #endif
  37:Generated_Source\PSoC5/cyfitter_cfg.c ****     
  38:Generated_Source\PSoC5/cyfitter_cfg.c ****     #if defined(__ARMCC_VERSION)
  39:Generated_Source\PSoC5/cyfitter_cfg.c ****         #define CY_CFG_MEMORY_BARRIER() __memory_changed()
  40:Generated_Source\PSoC5/cyfitter_cfg.c ****     #else
  41:Generated_Source\PSoC5/cyfitter_cfg.c ****         #define CY_CFG_MEMORY_BARRIER() __sync_synchronize()
  42:Generated_Source\PSoC5/cyfitter_cfg.c ****     #endif
  43:Generated_Source\PSoC5/cyfitter_cfg.c ****     
  44:Generated_Source\PSoC5/cyfitter_cfg.c **** #elif defined(__ICCARM__)
  45:Generated_Source\PSoC5/cyfitter_cfg.c ****     #include <intrinsics.h>
  46:Generated_Source\PSoC5/cyfitter_cfg.c **** 
  47:Generated_Source\PSoC5/cyfitter_cfg.c ****     #define CYPACKED __packed
  48:Generated_Source\PSoC5/cyfitter_cfg.c ****     #define CYPACKED_ATTR 
  49:Generated_Source\PSoC5/cyfitter_cfg.c ****     #define CYALIGNED _Pragma("data_alignment=4")
  50:Generated_Source\PSoC5/cyfitter_cfg.c ****     #define CY_CFG_UNUSED _Pragma("diag_suppress=Pe177")
  51:Generated_Source\PSoC5/cyfitter_cfg.c ****     #define CY_CFG_SECTION _Pragma("location=\".psocinit\"")
  52:Generated_Source\PSoC5/cyfitter_cfg.c ****     
  53:Generated_Source\PSoC5/cyfitter_cfg.c ****     #define CY_CFG_MEMORY_BARRIER() __DMB()
  54:Generated_Source\PSoC5/cyfitter_cfg.c ****     
  55:Generated_Source\PSoC5/cyfitter_cfg.c **** #else
  56:Generated_Source\PSoC5/cyfitter_cfg.c ****     #error Unsupported toolchain
  57:Generated_Source\PSoC5/cyfitter_cfg.c **** #endif
  58:Generated_Source\PSoC5/cyfitter_cfg.c **** 
  59:Generated_Source\PSoC5/cyfitter_cfg.c **** 
  60:Generated_Source\PSoC5/cyfitter_cfg.c **** CY_CFG_UNUSED
  61:Generated_Source\PSoC5/cyfitter_cfg.c **** static void CYMEMZERO(void *s, size_t n);
  62:Generated_Source\PSoC5/cyfitter_cfg.c **** CY_CFG_UNUSED
  63:Generated_Source\PSoC5/cyfitter_cfg.c **** static void CYMEMZERO(void *s, size_t n)
  64:Generated_Source\PSoC5/cyfitter_cfg.c **** {
  65:Generated_Source\PSoC5/cyfitter_cfg.c **** 	(void)memset(s, 0, n);
  66:Generated_Source\PSoC5/cyfitter_cfg.c **** }
  67:Generated_Source\PSoC5/cyfitter_cfg.c **** CY_CFG_UNUSED
  68:Generated_Source\PSoC5/cyfitter_cfg.c **** static void CYCONFIGCPY(void *dest, const void *src, size_t n);
  69:Generated_Source\PSoC5/cyfitter_cfg.c **** CY_CFG_UNUSED
  70:Generated_Source\PSoC5/cyfitter_cfg.c **** static void CYCONFIGCPY(void *dest, const void *src, size_t n)
  71:Generated_Source\PSoC5/cyfitter_cfg.c **** {
  72:Generated_Source\PSoC5/cyfitter_cfg.c **** 	(void)memcpy(dest, src, n);
  73:Generated_Source\PSoC5/cyfitter_cfg.c **** }
  74:Generated_Source\PSoC5/cyfitter_cfg.c **** CY_CFG_UNUSED
  75:Generated_Source\PSoC5/cyfitter_cfg.c **** static void CYCONFIGCPYCODE(void *dest, const void *src, size_t n);
  76:Generated_Source\PSoC5/cyfitter_cfg.c **** CY_CFG_UNUSED
  77:Generated_Source\PSoC5/cyfitter_cfg.c **** static void CYCONFIGCPYCODE(void *dest, const void *src, size_t n)
  78:Generated_Source\PSoC5/cyfitter_cfg.c **** {
  79:Generated_Source\PSoC5/cyfitter_cfg.c **** 	(void)memcpy(dest, src, n);
  80:Generated_Source\PSoC5/cyfitter_cfg.c **** }
  81:Generated_Source\PSoC5/cyfitter_cfg.c **** 
  82:Generated_Source\PSoC5/cyfitter_cfg.c **** 
  83:Generated_Source\PSoC5/cyfitter_cfg.c **** 
  84:Generated_Source\PSoC5/cyfitter_cfg.c **** 
  85:Generated_Source\PSoC5/cyfitter_cfg.c **** /* Clock startup error codes                                                   */
  86:Generated_Source\PSoC5/cyfitter_cfg.c **** #define CYCLOCKSTART_NO_ERROR    0u
  87:Generated_Source\PSoC5/cyfitter_cfg.c **** #define CYCLOCKSTART_XTAL_ERROR  1u
  88:Generated_Source\PSoC5/cyfitter_cfg.c **** #define CYCLOCKSTART_32KHZ_ERROR 2u
  89:Generated_Source\PSoC5/cyfitter_cfg.c **** #define CYCLOCKSTART_PLL_ERROR   3u
ARM GAS  C:\Users\kopusov.FT\AppData\Local\Temp\ccN74RdE.s 			page 3


  90:Generated_Source\PSoC5/cyfitter_cfg.c **** 
  91:Generated_Source\PSoC5/cyfitter_cfg.c **** 
  92:Generated_Source\PSoC5/cyfitter_cfg.c **** #ifdef CY_NEED_CYCLOCKSTARTUPERROR
  93:Generated_Source\PSoC5/cyfitter_cfg.c **** /*******************************************************************************
  94:Generated_Source\PSoC5/cyfitter_cfg.c **** * Function Name: CyClockStartupError
  95:Generated_Source\PSoC5/cyfitter_cfg.c **** ********************************************************************************
  96:Generated_Source\PSoC5/cyfitter_cfg.c **** * Summary:
  97:Generated_Source\PSoC5/cyfitter_cfg.c **** *  If an error is encountered during clock configuration (crystal startup error,
  98:Generated_Source\PSoC5/cyfitter_cfg.c **** *  PLL lock error, etc.), the system will end up here.  Unless reimplemented by
  99:Generated_Source\PSoC5/cyfitter_cfg.c **** *  the customer, this function will stop in an infinite loop.
 100:Generated_Source\PSoC5/cyfitter_cfg.c **** *
 101:Generated_Source\PSoC5/cyfitter_cfg.c **** * Parameters:
 102:Generated_Source\PSoC5/cyfitter_cfg.c **** *   void
 103:Generated_Source\PSoC5/cyfitter_cfg.c **** *
 104:Generated_Source\PSoC5/cyfitter_cfg.c **** * Return:
 105:Generated_Source\PSoC5/cyfitter_cfg.c **** *   void
 106:Generated_Source\PSoC5/cyfitter_cfg.c **** *
 107:Generated_Source\PSoC5/cyfitter_cfg.c **** *******************************************************************************/
 108:Generated_Source\PSoC5/cyfitter_cfg.c **** CY_CFG_UNUSED
 109:Generated_Source\PSoC5/cyfitter_cfg.c **** static void CyClockStartupError(uint8 errorCode);
 110:Generated_Source\PSoC5/cyfitter_cfg.c **** CY_CFG_UNUSED
 111:Generated_Source\PSoC5/cyfitter_cfg.c **** static void CyClockStartupError(uint8 errorCode)
 112:Generated_Source\PSoC5/cyfitter_cfg.c **** {
  26              		.loc 1 112 0
  27              		.cfi_startproc
  28              		@ Volatile: function does not return.
  29              		@ args = 0, pretend = 0, frame = 0
  30              		@ frame_needed = 0, uses_anonymous_args = 0
  31              		@ link register save eliminated.
  32              	.LVL0:
  33              	.L2:
 113:Generated_Source\PSoC5/cyfitter_cfg.c ****     /* To remove the compiler warning if errorCode not used.                */
 114:Generated_Source\PSoC5/cyfitter_cfg.c ****     errorCode = errorCode;
 115:Generated_Source\PSoC5/cyfitter_cfg.c **** 
 116:Generated_Source\PSoC5/cyfitter_cfg.c ****     /* If we have a clock startup error (bad MHz crystal, PLL lock, etc.),  */
 117:Generated_Source\PSoC5/cyfitter_cfg.c ****     /* we will end up here to allow the customer to implement something to  */
 118:Generated_Source\PSoC5/cyfitter_cfg.c ****     /* deal with the clock condition.                                       */
 119:Generated_Source\PSoC5/cyfitter_cfg.c **** 
 120:Generated_Source\PSoC5/cyfitter_cfg.c **** #ifdef CY_CFG_CLOCK_STARTUP_ERROR_CALLBACK
 121:Generated_Source\PSoC5/cyfitter_cfg.c **** 	CY_CFG_Clock_Startup_ErrorCallback();
 122:Generated_Source\PSoC5/cyfitter_cfg.c **** #else
 123:Generated_Source\PSoC5/cyfitter_cfg.c **** 	/*  If not using CY_CFG_CLOCK_STARTUP_ERROR_CALLBACK, place your clock startup code here. */
 124:Generated_Source\PSoC5/cyfitter_cfg.c ****     /* `#START CyClockStartupError` */
 125:Generated_Source\PSoC5/cyfitter_cfg.c **** 
 126:Generated_Source\PSoC5/cyfitter_cfg.c **** 
 127:Generated_Source\PSoC5/cyfitter_cfg.c **** 
 128:Generated_Source\PSoC5/cyfitter_cfg.c ****     /* `#END` */
 129:Generated_Source\PSoC5/cyfitter_cfg.c **** 
 130:Generated_Source\PSoC5/cyfitter_cfg.c ****     /* If nothing else, stop here since the clocks have not started         */
 131:Generated_Source\PSoC5/cyfitter_cfg.c ****     /* correctly.                                                           */
 132:Generated_Source\PSoC5/cyfitter_cfg.c ****     while(1) {}
  34              		.loc 1 132 0 discriminator 1
  35 0000 FEE7     		b	.L2
  36              		.cfi_endproc
  37              	.LFE3:
  38              		.size	CyClockStartupError, .-CyClockStartupError
  39 0002 00BF     		.section	.text.cfg_write_bytes32,"ax",%progbits
ARM GAS  C:\Users\kopusov.FT\AppData\Local\Temp\ccN74RdE.s 			page 4


  40              		.align	2
  41              		.thumb
  42              		.thumb_func
  43              		.type	cfg_write_bytes32, %function
  44              	cfg_write_bytes32:
  45              	.LFB4:
 133:Generated_Source\PSoC5/cyfitter_cfg.c **** #endif /* CY_CFG_CLOCK_STARTUP_ERROR_CALLBACK */ 
 134:Generated_Source\PSoC5/cyfitter_cfg.c **** }
 135:Generated_Source\PSoC5/cyfitter_cfg.c **** #endif
 136:Generated_Source\PSoC5/cyfitter_cfg.c **** 
 137:Generated_Source\PSoC5/cyfitter_cfg.c **** #define CY_CFG_BASE_ADDR_COUNT 38u
 138:Generated_Source\PSoC5/cyfitter_cfg.c **** CYPACKED typedef struct
 139:Generated_Source\PSoC5/cyfitter_cfg.c **** {
 140:Generated_Source\PSoC5/cyfitter_cfg.c **** 	uint8 offset;
 141:Generated_Source\PSoC5/cyfitter_cfg.c **** 	uint8 value;
 142:Generated_Source\PSoC5/cyfitter_cfg.c **** } CYPACKED_ATTR cy_cfg_addrvalue_t;
 143:Generated_Source\PSoC5/cyfitter_cfg.c **** 
 144:Generated_Source\PSoC5/cyfitter_cfg.c **** #define cy_cfg_addr_table ((const uint32 CYFAR *)0x48000000u)
 145:Generated_Source\PSoC5/cyfitter_cfg.c **** #define cy_cfg_data_table ((const cy_cfg_addrvalue_t CYFAR *)0x48000098u)
 146:Generated_Source\PSoC5/cyfitter_cfg.c **** 
 147:Generated_Source\PSoC5/cyfitter_cfg.c **** /* IDMUX Address: CYREG_IDMUX_DRQ_CTL0 Size (bytes): 6 */
 148:Generated_Source\PSoC5/cyfitter_cfg.c **** #define BS_IDMUX_VAL ((const uint8 CYFAR *)0x48000E3Cu)
 149:Generated_Source\PSoC5/cyfitter_cfg.c **** 
 150:Generated_Source\PSoC5/cyfitter_cfg.c **** /* IOPORT_7 Address: CYDEV_PRTDSI_PRT12_BASE Size (bytes): 6 */
 151:Generated_Source\PSoC5/cyfitter_cfg.c **** #define BS_IOPORT_7_VAL ((const uint8 CYFAR *)0x48000E44u)
 152:Generated_Source\PSoC5/cyfitter_cfg.c **** 
 153:Generated_Source\PSoC5/cyfitter_cfg.c **** /* UDB_0_1_1_CONFIG Address: CYDEV_UCFG_B1_P4_U0_BASE Size (bytes): 128 */
 154:Generated_Source\PSoC5/cyfitter_cfg.c **** #define BS_UDB_0_1_1_CONFIG_VAL ((const uint8 CYFAR *)0x48000E4Cu)
 155:Generated_Source\PSoC5/cyfitter_cfg.c **** 
 156:Generated_Source\PSoC5/cyfitter_cfg.c **** /* IOPINS0_0 Address: CYREG_PRT0_DM0 Size (bytes): 8 */
 157:Generated_Source\PSoC5/cyfitter_cfg.c **** #define BS_IOPINS0_0_VAL ((const uint8 CYFAR *)0x48000ECCu)
 158:Generated_Source\PSoC5/cyfitter_cfg.c **** 
 159:Generated_Source\PSoC5/cyfitter_cfg.c **** /* IOPINS0_7 Address: CYREG_PRT12_DR Size (bytes): 10 */
 160:Generated_Source\PSoC5/cyfitter_cfg.c **** #define BS_IOPINS0_7_VAL ((const uint8 CYFAR *)0x48000ED4u)
 161:Generated_Source\PSoC5/cyfitter_cfg.c **** 
 162:Generated_Source\PSoC5/cyfitter_cfg.c **** /* IOPINS1_7 Address: CYREG_PRT12_DR + 0x0000000Bu Size (bytes): 5 */
 163:Generated_Source\PSoC5/cyfitter_cfg.c **** #define BS_IOPINS1_7_VAL ((const uint8 CYFAR *)0x48000EE0u)
 164:Generated_Source\PSoC5/cyfitter_cfg.c **** 
 165:Generated_Source\PSoC5/cyfitter_cfg.c **** /* IOPINS0_8 Address: CYREG_PRT15_DR Size (bytes): 10 */
 166:Generated_Source\PSoC5/cyfitter_cfg.c **** #define BS_IOPINS0_8_VAL ((const uint8 CYFAR *)0x48000EE8u)
 167:Generated_Source\PSoC5/cyfitter_cfg.c **** 
 168:Generated_Source\PSoC5/cyfitter_cfg.c **** /* IOPINS0_1 Address: CYREG_PRT1_DM0 Size (bytes): 8 */
 169:Generated_Source\PSoC5/cyfitter_cfg.c **** #define BS_IOPINS0_1_VAL ((const uint8 CYFAR *)0x48000EF4u)
 170:Generated_Source\PSoC5/cyfitter_cfg.c **** 
 171:Generated_Source\PSoC5/cyfitter_cfg.c **** /* IOPINS0_2 Address: CYREG_PRT2_DM0 Size (bytes): 8 */
 172:Generated_Source\PSoC5/cyfitter_cfg.c **** #define BS_IOPINS0_2_VAL ((const uint8 CYFAR *)0x48000EFCu)
 173:Generated_Source\PSoC5/cyfitter_cfg.c **** 
 174:Generated_Source\PSoC5/cyfitter_cfg.c **** /* IOPINS0_3 Address: CYREG_PRT3_DM0 Size (bytes): 8 */
 175:Generated_Source\PSoC5/cyfitter_cfg.c **** #define BS_IOPINS0_3_VAL ((const uint8 CYFAR *)0x48000F04u)
 176:Generated_Source\PSoC5/cyfitter_cfg.c **** 
 177:Generated_Source\PSoC5/cyfitter_cfg.c **** /* IOPINS0_6 Address: CYREG_PRT6_DM0 Size (bytes): 8 */
 178:Generated_Source\PSoC5/cyfitter_cfg.c **** #define BS_IOPINS0_6_VAL ((const uint8 CYFAR *)0x48000F0Cu)
 179:Generated_Source\PSoC5/cyfitter_cfg.c **** 
 180:Generated_Source\PSoC5/cyfitter_cfg.c **** /* PHUB_CFGMEM1 Address: CYREG_PHUB_CFGMEM1_CFG0 Size (bytes): 4 */
 181:Generated_Source\PSoC5/cyfitter_cfg.c **** #define BS_PHUB_CFGMEM1_VAL ((const uint8 CYFAR *)0x48000F14u)
 182:Generated_Source\PSoC5/cyfitter_cfg.c **** 
 183:Generated_Source\PSoC5/cyfitter_cfg.c **** /* PHUB_CFGMEM4 Address: CYREG_PHUB_CFGMEM4_CFG0 Size (bytes): 4 */
ARM GAS  C:\Users\kopusov.FT\AppData\Local\Temp\ccN74RdE.s 			page 5


 184:Generated_Source\PSoC5/cyfitter_cfg.c **** #define BS_PHUB_CFGMEM4_VAL ((const uint8 CYFAR *)0x48000F18u)
 185:Generated_Source\PSoC5/cyfitter_cfg.c **** 
 186:Generated_Source\PSoC5/cyfitter_cfg.c **** /* PHUB_CFGMEM5 Address: CYREG_PHUB_CFGMEM5_CFG0 Size (bytes): 4 */
 187:Generated_Source\PSoC5/cyfitter_cfg.c **** #define BS_PHUB_CFGMEM5_VAL ((const uint8 CYFAR *)0x48000F1Cu)
 188:Generated_Source\PSoC5/cyfitter_cfg.c **** 
 189:Generated_Source\PSoC5/cyfitter_cfg.c **** /* PHUB_CFGMEM6 Address: CYREG_PHUB_CFGMEM6_CFG0 Size (bytes): 4 */
 190:Generated_Source\PSoC5/cyfitter_cfg.c **** #define BS_PHUB_CFGMEM6_VAL ((const uint8 CYFAR *)0x48000F20u)
 191:Generated_Source\PSoC5/cyfitter_cfg.c **** 
 192:Generated_Source\PSoC5/cyfitter_cfg.c **** /* PHUB_CFGMEM9 Address: CYREG_PHUB_CFGMEM9_CFG0 Size (bytes): 4 */
 193:Generated_Source\PSoC5/cyfitter_cfg.c **** #define BS_PHUB_CFGMEM9_VAL ((const uint8 CYFAR *)0x48000F24u)
 194:Generated_Source\PSoC5/cyfitter_cfg.c **** 
 195:Generated_Source\PSoC5/cyfitter_cfg.c **** 
 196:Generated_Source\PSoC5/cyfitter_cfg.c **** /*******************************************************************************
 197:Generated_Source\PSoC5/cyfitter_cfg.c **** * Function Name: cfg_write_bytes32
 198:Generated_Source\PSoC5/cyfitter_cfg.c **** ********************************************************************************
 199:Generated_Source\PSoC5/cyfitter_cfg.c **** * Summary:
 200:Generated_Source\PSoC5/cyfitter_cfg.c **** *  This function is used for setting up the chip configuration areas that
 201:Generated_Source\PSoC5/cyfitter_cfg.c **** *  contain relatively sparse data.
 202:Generated_Source\PSoC5/cyfitter_cfg.c **** *
 203:Generated_Source\PSoC5/cyfitter_cfg.c **** * Parameters:
 204:Generated_Source\PSoC5/cyfitter_cfg.c **** *   void
 205:Generated_Source\PSoC5/cyfitter_cfg.c **** *
 206:Generated_Source\PSoC5/cyfitter_cfg.c **** * Return:
 207:Generated_Source\PSoC5/cyfitter_cfg.c **** *   void
 208:Generated_Source\PSoC5/cyfitter_cfg.c **** *
 209:Generated_Source\PSoC5/cyfitter_cfg.c **** *******************************************************************************/
 210:Generated_Source\PSoC5/cyfitter_cfg.c **** static void cfg_write_bytes32(const uint32 addr_table[], const cy_cfg_addrvalue_t data_table[]);
 211:Generated_Source\PSoC5/cyfitter_cfg.c **** static void cfg_write_bytes32(const uint32 addr_table[], const cy_cfg_addrvalue_t data_table[])
 212:Generated_Source\PSoC5/cyfitter_cfg.c **** {
  46              		.loc 1 212 0
  47              		.cfi_startproc
  48              		@ args = 0, pretend = 0, frame = 0
  49              		@ frame_needed = 0, uses_anonymous_args = 0
  50              		@ link register save eliminated.
  51              	.LVL1:
  52 0000 F0B4     		push	{r4, r5, r6, r7}
  53              		.cfi_def_cfa_offset 16
  54              		.cfi_offset 4, -16
  55              		.cfi_offset 5, -12
  56              		.cfi_offset 6, -8
  57              		.cfi_offset 7, -4
  58              	.LVL2:
 213:Generated_Source\PSoC5/cyfitter_cfg.c **** 	/* For 32-bit little-endian architectures */
 214:Generated_Source\PSoC5/cyfitter_cfg.c **** 	uint32 i, j = 0u;
  59              		.loc 1 214 0
  60 0002 0022     		movs	r2, #0
 215:Generated_Source\PSoC5/cyfitter_cfg.c **** 	for (i = 0u; i < CY_CFG_BASE_ADDR_COUNT; i++)
  61              		.loc 1 215 0
  62 0004 1746     		mov	r7, r2
  63 0006 11E0     		b	.L4
  64              	.LVL3:
  65              	.L7:
  66              	.LBB2:
 216:Generated_Source\PSoC5/cyfitter_cfg.c **** 	{
 217:Generated_Source\PSoC5/cyfitter_cfg.c **** 		uint32 baseAddr = addr_table[i];
  67              		.loc 1 217 0
  68 0008 50F82760 		ldr	r6, [r0, r7, lsl #2]
ARM GAS  C:\Users\kopusov.FT\AppData\Local\Temp\ccN74RdE.s 			page 6


  69              	.LVL4:
 218:Generated_Source\PSoC5/cyfitter_cfg.c **** 		uint8 count = (uint8)baseAddr;
  70              		.loc 1 218 0
  71 000c F3B2     		uxtb	r3, r6
  72              	.LVL5:
 219:Generated_Source\PSoC5/cyfitter_cfg.c **** 		baseAddr &= 0xFFFFFF00u;
  73              		.loc 1 219 0
  74 000e 26F0FF06 		bic	r6, r6, #255
  75              	.LVL6:
 220:Generated_Source\PSoC5/cyfitter_cfg.c **** 		while (count != 0u)
  76              		.loc 1 220 0
  77 0012 08E0     		b	.L5
  78              	.L6:
 221:Generated_Source\PSoC5/cyfitter_cfg.c **** 		{
 222:Generated_Source\PSoC5/cyfitter_cfg.c **** 			CY_SET_XTND_REG8((void CYFAR *)(baseAddr + data_table[j].offset), data_table[j].value);
  79              		.loc 1 222 0
  80 0014 01EB4205 		add	r5, r1, r2, lsl #1
  81 0018 11F81240 		ldrb	r4, [r1, r2, lsl #1]	@ zero_extendqisi2
  82 001c 6D78     		ldrb	r5, [r5, #1]	@ zero_extendqisi2
  83 001e A555     		strb	r5, [r4, r6]
 223:Generated_Source\PSoC5/cyfitter_cfg.c **** 			j++;
  84              		.loc 1 223 0
  85 0020 0132     		adds	r2, r2, #1
  86              	.LVL7:
 224:Generated_Source\PSoC5/cyfitter_cfg.c **** 			count--;
  87              		.loc 1 224 0
  88 0022 013B     		subs	r3, r3, #1
  89              	.LVL8:
  90 0024 DBB2     		uxtb	r3, r3
  91              	.LVL9:
  92              	.L5:
 220:Generated_Source\PSoC5/cyfitter_cfg.c **** 		{
  93              		.loc 1 220 0
  94 0026 002B     		cmp	r3, #0
  95 0028 F4D1     		bne	.L6
  96              	.LBE2:
 215:Generated_Source\PSoC5/cyfitter_cfg.c **** 	{
  97              		.loc 1 215 0 discriminator 2
  98 002a 0137     		adds	r7, r7, #1
  99              	.LVL10:
 100              	.L4:
 215:Generated_Source\PSoC5/cyfitter_cfg.c **** 	{
 101              		.loc 1 215 0 is_stmt 0 discriminator 1
 102 002c 252F     		cmp	r7, #37
 103 002e EBD9     		bls	.L7
 225:Generated_Source\PSoC5/cyfitter_cfg.c **** 		}
 226:Generated_Source\PSoC5/cyfitter_cfg.c **** 	}
 227:Generated_Source\PSoC5/cyfitter_cfg.c **** }
 104              		.loc 1 227 0 is_stmt 1
 105 0030 F0BC     		pop	{r4, r5, r6, r7}
 106              		.cfi_restore 7
 107              		.cfi_restore 6
 108              		.cfi_restore 5
 109              		.cfi_restore 4
 110              		.cfi_def_cfa_offset 0
 111              	.LVL11:
 112 0032 7047     		bx	lr
ARM GAS  C:\Users\kopusov.FT\AppData\Local\Temp\ccN74RdE.s 			page 7


 113              		.cfi_endproc
 114              	.LFE4:
 115              		.size	cfg_write_bytes32, .-cfg_write_bytes32
 116              		.section	.text.AnalogSetDefault,"ax",%progbits
 117              		.align	2
 118              		.thumb
 119              		.thumb_func
 120              		.type	AnalogSetDefault, %function
 121              	AnalogSetDefault:
 122              	.LFB6:
 228:Generated_Source\PSoC5/cyfitter_cfg.c **** 
 229:Generated_Source\PSoC5/cyfitter_cfg.c **** /*******************************************************************************
 230:Generated_Source\PSoC5/cyfitter_cfg.c **** * Function Name: ClockSetup
 231:Generated_Source\PSoC5/cyfitter_cfg.c **** ********************************************************************************
 232:Generated_Source\PSoC5/cyfitter_cfg.c **** *
 233:Generated_Source\PSoC5/cyfitter_cfg.c **** * Summary:
 234:Generated_Source\PSoC5/cyfitter_cfg.c **** *  Performs the initialization of all of the clocks in the device based on the
 235:Generated_Source\PSoC5/cyfitter_cfg.c **** *  settings in the Clock tab of the DWR.  This includes enabling the requested
 236:Generated_Source\PSoC5/cyfitter_cfg.c **** *  clocks and setting the necessary dividers to produce the desired frequency. 
 237:Generated_Source\PSoC5/cyfitter_cfg.c **** *
 238:Generated_Source\PSoC5/cyfitter_cfg.c **** * Parameters:
 239:Generated_Source\PSoC5/cyfitter_cfg.c **** *  void
 240:Generated_Source\PSoC5/cyfitter_cfg.c **** *
 241:Generated_Source\PSoC5/cyfitter_cfg.c **** * Return:
 242:Generated_Source\PSoC5/cyfitter_cfg.c **** *  void
 243:Generated_Source\PSoC5/cyfitter_cfg.c **** *
 244:Generated_Source\PSoC5/cyfitter_cfg.c **** *******************************************************************************/
 245:Generated_Source\PSoC5/cyfitter_cfg.c **** static void ClockSetup(void);
 246:Generated_Source\PSoC5/cyfitter_cfg.c **** static void ClockSetup(void)
 247:Generated_Source\PSoC5/cyfitter_cfg.c **** {
 248:Generated_Source\PSoC5/cyfitter_cfg.c **** 	uint32 timeout;
 249:Generated_Source\PSoC5/cyfitter_cfg.c **** 	uint8 pllLock;
 250:Generated_Source\PSoC5/cyfitter_cfg.c **** 
 251:Generated_Source\PSoC5/cyfitter_cfg.c **** 
 252:Generated_Source\PSoC5/cyfitter_cfg.c **** 	/* Configure Digital Clocks based on settings from Clock DWR */
 253:Generated_Source\PSoC5/cyfitter_cfg.c **** 	CY_SET_XTND_REG16((void CYFAR *)(CYREG_CLKDIST_DCFG0_CFG0), 0x0017u);
 254:Generated_Source\PSoC5/cyfitter_cfg.c **** 	CY_SET_XTND_REG8((void CYFAR *)(CYREG_CLKDIST_DCFG0_CFG0 + 0x2u), 0x18u);
 255:Generated_Source\PSoC5/cyfitter_cfg.c **** 	CY_SET_XTND_REG16((void CYFAR *)(CYREG_CLKDIST_DCFG1_CFG0), 0x002Fu);
 256:Generated_Source\PSoC5/cyfitter_cfg.c **** 	CY_SET_XTND_REG8((void CYFAR *)(CYREG_CLKDIST_DCFG1_CFG0 + 0x2u), 0x18u);
 257:Generated_Source\PSoC5/cyfitter_cfg.c **** 	CY_SET_XTND_REG16((void CYFAR *)(CYREG_CLKDIST_DCFG2_CFG0), 0x031Fu);
 258:Generated_Source\PSoC5/cyfitter_cfg.c **** 	CY_SET_XTND_REG8((void CYFAR *)(CYREG_CLKDIST_DCFG2_CFG0 + 0x2u), 0x18u);
 259:Generated_Source\PSoC5/cyfitter_cfg.c **** 
 260:Generated_Source\PSoC5/cyfitter_cfg.c **** 	/* Configure ILO based on settings from Clock DWR */
 261:Generated_Source\PSoC5/cyfitter_cfg.c **** 	CY_SET_XTND_REG8((void CYFAR *)(CYREG_SLOWCLK_ILO_CR0), 0x06u);
 262:Generated_Source\PSoC5/cyfitter_cfg.c **** 
 263:Generated_Source\PSoC5/cyfitter_cfg.c **** 	/* Configure XTAL based on settings from Clock DWR */
 264:Generated_Source\PSoC5/cyfitter_cfg.c **** 	CY_SET_XTND_REG16((void CYFAR *)(CYREG_FASTCLK_XMHZ_CFG0), 0x3313u);
 265:Generated_Source\PSoC5/cyfitter_cfg.c **** 	CY_SET_XTND_REG8((void CYFAR *)(CYREG_FASTCLK_XMHZ_CSR), 0x05u);
 266:Generated_Source\PSoC5/cyfitter_cfg.c **** 	/* Wait up to 130000us for the XTAL to lock */
 267:Generated_Source\PSoC5/cyfitter_cfg.c **** 	CY_GET_XTND_REG8((void CYFAR *)CYREG_FASTCLK_XMHZ_CSR);
 268:Generated_Source\PSoC5/cyfitter_cfg.c **** 	for (timeout = 130000u / 10u; (timeout > 0u) && ((CY_GET_XTND_REG8((void CYFAR *)CYREG_FASTCLK_XMH
 269:Generated_Source\PSoC5/cyfitter_cfg.c **** 	{ 
 270:Generated_Source\PSoC5/cyfitter_cfg.c **** 		
 271:Generated_Source\PSoC5/cyfitter_cfg.c **** 		CyDelayCycles(10u * 48u); /* Delay 10us based on 48MHz clock */
 272:Generated_Source\PSoC5/cyfitter_cfg.c **** 	}
 273:Generated_Source\PSoC5/cyfitter_cfg.c **** 	if (timeout == 0u)
 274:Generated_Source\PSoC5/cyfitter_cfg.c **** 	{
ARM GAS  C:\Users\kopusov.FT\AppData\Local\Temp\ccN74RdE.s 			page 8


 275:Generated_Source\PSoC5/cyfitter_cfg.c **** 		CyClockStartupError(CYCLOCKSTART_XTAL_ERROR);
 276:Generated_Source\PSoC5/cyfitter_cfg.c **** 	}
 277:Generated_Source\PSoC5/cyfitter_cfg.c **** 
 278:Generated_Source\PSoC5/cyfitter_cfg.c **** 	/* Configure Bus/Master Clock based on settings from Clock DWR */
 279:Generated_Source\PSoC5/cyfitter_cfg.c **** 	CY_SET_XTND_REG16((void CYFAR *)(CYREG_CLKDIST_MSTR0), 0x0200u);
 280:Generated_Source\PSoC5/cyfitter_cfg.c **** 
 281:Generated_Source\PSoC5/cyfitter_cfg.c **** 	/* Configure PLL based on settings from Clock DWR */
 282:Generated_Source\PSoC5/cyfitter_cfg.c **** 	CY_SET_XTND_REG16((void CYFAR *)(CYREG_FASTCLK_PLL_P), 0x0708u);
 283:Generated_Source\PSoC5/cyfitter_cfg.c **** 	CY_SET_XTND_REG8((void CYFAR *)(CYREG_CLKDIST_CR), 0x01u);
 284:Generated_Source\PSoC5/cyfitter_cfg.c **** 	CY_SET_XTND_REG16((void CYFAR *)(CYREG_FASTCLK_PLL_CFG0), 0x1251u);
 285:Generated_Source\PSoC5/cyfitter_cfg.c **** 	/* Wait up to 250us for the PLL to lock */
 286:Generated_Source\PSoC5/cyfitter_cfg.c **** 	pllLock = 0u;
 287:Generated_Source\PSoC5/cyfitter_cfg.c **** 	for (timeout = 250u / 10u; (timeout > 0u) && (pllLock != 0x03u); timeout--)
 288:Generated_Source\PSoC5/cyfitter_cfg.c **** 	{ 
 289:Generated_Source\PSoC5/cyfitter_cfg.c **** 		pllLock = 0x03u & ((uint8)((uint8)pllLock << 1) | ((CY_GET_XTND_REG8((void CYFAR *)CYREG_FASTCLK_
 290:Generated_Source\PSoC5/cyfitter_cfg.c **** 		CyDelayCycles(10u * 48u); /* Delay 10us based on 48MHz clock */
 291:Generated_Source\PSoC5/cyfitter_cfg.c **** 	}
 292:Generated_Source\PSoC5/cyfitter_cfg.c **** 	CY_SET_XTND_REG8((void CYFAR *)(CYREG_CLKDIST_CR), 0x41u);
 293:Generated_Source\PSoC5/cyfitter_cfg.c **** 
 294:Generated_Source\PSoC5/cyfitter_cfg.c **** 	/* Configure IMO based on settings from Clock DWR */
 295:Generated_Source\PSoC5/cyfitter_cfg.c **** 	CY_SET_XTND_REG8((void CYFAR *)(CYREG_FASTCLK_IMO_CR), 0x70u);
 296:Generated_Source\PSoC5/cyfitter_cfg.c **** 	CY_SET_XTND_REG8((void CYFAR *)(CYREG_CLKDIST_MSTR0), 0x07u);
 297:Generated_Source\PSoC5/cyfitter_cfg.c **** 	CY_SET_XTND_REG8((void CYFAR *)(CYREG_CLKDIST_BCFG0), 0x00u);
 298:Generated_Source\PSoC5/cyfitter_cfg.c **** 	CY_SET_XTND_REG8((void CYFAR *)(CYREG_CLKDIST_BCFG2), 0x48u);
 299:Generated_Source\PSoC5/cyfitter_cfg.c **** 	CY_SET_XTND_REG8((void CYFAR *)(CYREG_CLKDIST_MSTR0), 0x00u);
 300:Generated_Source\PSoC5/cyfitter_cfg.c **** 
 301:Generated_Source\PSoC5/cyfitter_cfg.c **** 	/* Configure USB Clock based on settings from Clock DWR */
 302:Generated_Source\PSoC5/cyfitter_cfg.c **** 	CY_SET_XTND_REG8((void CYFAR *)(CYREG_CLKDIST_UCFG), 0x00u);
 303:Generated_Source\PSoC5/cyfitter_cfg.c **** 	CY_SET_XTND_REG8((void CYFAR *)(CYREG_CLKDIST_LD), 0x02u);
 304:Generated_Source\PSoC5/cyfitter_cfg.c **** 
 305:Generated_Source\PSoC5/cyfitter_cfg.c **** 	CY_SET_XTND_REG8((void CYFAR *)(CYREG_PM_ACT_CFG2), ((CY_GET_XTND_REG8((void CYFAR *)CYREG_PM_ACT_
 306:Generated_Source\PSoC5/cyfitter_cfg.c **** }
 307:Generated_Source\PSoC5/cyfitter_cfg.c **** 
 308:Generated_Source\PSoC5/cyfitter_cfg.c **** 
 309:Generated_Source\PSoC5/cyfitter_cfg.c **** /* Analog API Functions */
 310:Generated_Source\PSoC5/cyfitter_cfg.c **** 
 311:Generated_Source\PSoC5/cyfitter_cfg.c **** 
 312:Generated_Source\PSoC5/cyfitter_cfg.c **** /*******************************************************************************
 313:Generated_Source\PSoC5/cyfitter_cfg.c **** * Function Name: AnalogSetDefault
 314:Generated_Source\PSoC5/cyfitter_cfg.c **** ********************************************************************************
 315:Generated_Source\PSoC5/cyfitter_cfg.c **** *
 316:Generated_Source\PSoC5/cyfitter_cfg.c **** * Summary:
 317:Generated_Source\PSoC5/cyfitter_cfg.c **** *  Sets up the analog portions of the chip to default values based on chip
 318:Generated_Source\PSoC5/cyfitter_cfg.c **** *  configuration options from the project.
 319:Generated_Source\PSoC5/cyfitter_cfg.c **** *
 320:Generated_Source\PSoC5/cyfitter_cfg.c **** * Parameters:
 321:Generated_Source\PSoC5/cyfitter_cfg.c **** *  void
 322:Generated_Source\PSoC5/cyfitter_cfg.c **** *
 323:Generated_Source\PSoC5/cyfitter_cfg.c **** * Return:
 324:Generated_Source\PSoC5/cyfitter_cfg.c **** *  void
 325:Generated_Source\PSoC5/cyfitter_cfg.c **** *
 326:Generated_Source\PSoC5/cyfitter_cfg.c **** *******************************************************************************/
 327:Generated_Source\PSoC5/cyfitter_cfg.c **** static void AnalogSetDefault(void);
 328:Generated_Source\PSoC5/cyfitter_cfg.c **** static void AnalogSetDefault(void)
 329:Generated_Source\PSoC5/cyfitter_cfg.c **** {
 123              		.loc 1 329 0
 124              		.cfi_startproc
ARM GAS  C:\Users\kopusov.FT\AppData\Local\Temp\ccN74RdE.s 			page 9


 125              		@ args = 0, pretend = 0, frame = 0
 126              		@ frame_needed = 0, uses_anonymous_args = 0
 127              		@ link register save eliminated.
 330:Generated_Source\PSoC5/cyfitter_cfg.c **** 	uint8 bg_xover_inl_trim = CY_GET_XTND_REG8((void CYFAR *)(CYREG_FLSHID_MFG_CFG_BG_XOVER_INL_TRIM +
 128              		.loc 1 330 0
 129 0000 104B     		ldr	r3, .L10
 130 0002 1B78     		ldrb	r3, [r3]	@ zero_extendqisi2
 131 0004 DBB2     		uxtb	r3, r3
 132              	.LVL12:
 331:Generated_Source\PSoC5/cyfitter_cfg.c **** 	CY_SET_XTND_REG8((void CYFAR *)(CYREG_BG_DFT0), (bg_xover_inl_trim & 0x07u));
 133              		.loc 1 331 0
 134 0006 03F00701 		and	r1, r3, #7
 135 000a 0F4A     		ldr	r2, .L10+4
 136 000c 1170     		strb	r1, [r2]
 332:Generated_Source\PSoC5/cyfitter_cfg.c **** 	CY_SET_XTND_REG8((void CYFAR *)(CYREG_BG_DFT1), ((bg_xover_inl_trim >> 4) & 0x0Fu));
 137              		.loc 1 332 0
 138 000e 1B09     		lsrs	r3, r3, #4
 139              	.LVL13:
 140 0010 0132     		adds	r2, r2, #1
 141 0012 1370     		strb	r3, [r2]
 333:Generated_Source\PSoC5/cyfitter_cfg.c **** 	CY_SET_XTND_REG8((void CYFAR *)CYREG_PRT3_AG, 0x81u);
 142              		.loc 1 333 0
 143 0014 8122     		movs	r2, #129
 144 0016 0D4B     		ldr	r3, .L10+8
 145 0018 1A70     		strb	r2, [r3]
 334:Generated_Source\PSoC5/cyfitter_cfg.c **** 	CY_SET_XTND_REG8((void CYFAR *)CYREG_PRT12_AG, 0x05u);
 146              		.loc 1 334 0
 147 001a 0522     		movs	r2, #5
 148 001c 9033     		adds	r3, r3, #144
 149 001e 1A70     		strb	r2, [r3]
 335:Generated_Source\PSoC5/cyfitter_cfg.c **** 	CY_SET_XTND_REG8((void CYFAR *)CYREG_DAC3_SW0, 0x20u);
 150              		.loc 1 335 0
 151 0020 2022     		movs	r2, #32
 152 0022 03F6CB03 		addw	r3, r3, #2251
 153 0026 1A70     		strb	r2, [r3]
 336:Generated_Source\PSoC5/cyfitter_cfg.c **** 	CY_SET_XTND_REG8((void CYFAR *)CYREG_DSM0_SW0, 0x90u);
 154              		.loc 1 336 0
 155 0028 9023     		movs	r3, #144
 156 002a 094A     		ldr	r2, .L10+12
 157 002c 1370     		strb	r3, [r2]
 337:Generated_Source\PSoC5/cyfitter_cfg.c **** 	CY_SET_XTND_REG16((void CYFAR *)CYREG_OPAMP3_MX, 0x0102u);
 158              		.loc 1 337 0
 159 002e 4FF48171 		mov	r1, #258
 160 0032 4632     		adds	r2, r2, #70
 161 0034 1180     		strh	r1, [r2]	@ movhi
 338:Generated_Source\PSoC5/cyfitter_cfg.c **** 	CY_SET_XTND_REG8((void CYFAR *)CYREG_BUS_SW0, 0x90u);
 162              		.loc 1 338 0
 163 0036 1232     		adds	r2, r2, #18
 164 0038 1370     		strb	r3, [r2]
 339:Generated_Source\PSoC5/cyfitter_cfg.c **** 	CY_SET_XTND_REG8((void CYFAR *)CYREG_PUMP_CR0, 0x66u);
 165              		.loc 1 339 0
 166 003a 6622     		movs	r2, #102
 167 003c 054B     		ldr	r3, .L10+16
 168 003e 1A70     		strb	r2, [r3]
 169 0040 7047     		bx	lr
 170              	.L11:
 171 0042 00BF     		.align	2
ARM GAS  C:\Users\kopusov.FT\AppData\Local\Temp\ccN74RdE.s 			page 10


 172              	.L10:
 173 0044 CF010049 		.word	1224737231
 174 0048 6E580040 		.word	1073764462
 175 004c 3D510040 		.word	1073762621
 176 0050 005B0040 		.word	1073765120
 177 0054 76580040 		.word	1073764470
 178              		.cfi_endproc
 179              	.LFE6:
 180              		.size	AnalogSetDefault, .-AnalogSetDefault
 181              		.section	.text.CYMEMZERO,"ax",%progbits
 182              		.align	2
 183              		.thumb
 184              		.thumb_func
 185              		.type	CYMEMZERO, %function
 186              	CYMEMZERO:
 187              	.LFB0:
  64:Generated_Source\PSoC5/cyfitter_cfg.c **** 	(void)memset(s, 0, n);
 188              		.loc 1 64 0
 189              		.cfi_startproc
 190              		@ args = 0, pretend = 0, frame = 0
 191              		@ frame_needed = 0, uses_anonymous_args = 0
 192              	.LVL14:
 193 0000 08B5     		push	{r3, lr}
 194              		.cfi_def_cfa_offset 8
 195              		.cfi_offset 3, -8
 196              		.cfi_offset 14, -4
 197 0002 0A46     		mov	r2, r1
  65:Generated_Source\PSoC5/cyfitter_cfg.c **** }
 198              		.loc 1 65 0
 199 0004 0021     		movs	r1, #0
 200              	.LVL15:
 201 0006 FFF7FEFF 		bl	memset
 202              	.LVL16:
 203 000a 08BD     		pop	{r3, pc}
 204              		.cfi_endproc
 205              	.LFE0:
 206              		.size	CYMEMZERO, .-CYMEMZERO
 207              		.section	.text.ClockSetup,"ax",%progbits
 208              		.align	2
 209              		.thumb
 210              		.thumb_func
 211              		.type	ClockSetup, %function
 212              	ClockSetup:
 213              	.LFB5:
 247:Generated_Source\PSoC5/cyfitter_cfg.c **** 	uint32 timeout;
 214              		.loc 1 247 0
 215              		.cfi_startproc
 216              		@ args = 0, pretend = 0, frame = 0
 217              		@ frame_needed = 0, uses_anonymous_args = 0
 218 0000 38B5     		push	{r3, r4, r5, lr}
 219              		.cfi_def_cfa_offset 16
 220              		.cfi_offset 3, -16
 221              		.cfi_offset 4, -12
 222              		.cfi_offset 5, -8
 223              		.cfi_offset 14, -4
 253:Generated_Source\PSoC5/cyfitter_cfg.c **** 	CY_SET_XTND_REG8((void CYFAR *)(CYREG_CLKDIST_DCFG0_CFG0 + 0x2u), 0x18u);
 224              		.loc 1 253 0
ARM GAS  C:\Users\kopusov.FT\AppData\Local\Temp\ccN74RdE.s 			page 11


 225 0002 1722     		movs	r2, #23
 226 0004 374B     		ldr	r3, .L23
 227 0006 1A80     		strh	r2, [r3]	@ movhi
 254:Generated_Source\PSoC5/cyfitter_cfg.c **** 	CY_SET_XTND_REG16((void CYFAR *)(CYREG_CLKDIST_DCFG1_CFG0), 0x002Fu);
 228              		.loc 1 254 0
 229 0008 1823     		movs	r3, #24
 230 000a 374A     		ldr	r2, .L23+4
 231 000c 1370     		strb	r3, [r2]
 255:Generated_Source\PSoC5/cyfitter_cfg.c **** 	CY_SET_XTND_REG8((void CYFAR *)(CYREG_CLKDIST_DCFG1_CFG0 + 0x2u), 0x18u);
 232              		.loc 1 255 0
 233 000e 2F21     		movs	r1, #47
 234 0010 0232     		adds	r2, r2, #2
 235 0012 1180     		strh	r1, [r2]	@ movhi
 256:Generated_Source\PSoC5/cyfitter_cfg.c **** 	CY_SET_XTND_REG16((void CYFAR *)(CYREG_CLKDIST_DCFG2_CFG0), 0x031Fu);
 236              		.loc 1 256 0
 237 0014 0232     		adds	r2, r2, #2
 238 0016 1370     		strb	r3, [r2]
 257:Generated_Source\PSoC5/cyfitter_cfg.c **** 	CY_SET_XTND_REG8((void CYFAR *)(CYREG_CLKDIST_DCFG2_CFG0 + 0x2u), 0x18u);
 239              		.loc 1 257 0
 240 0018 40F21F31 		movw	r1, #799
 241 001c 0232     		adds	r2, r2, #2
 242 001e 1180     		strh	r1, [r2]	@ movhi
 258:Generated_Source\PSoC5/cyfitter_cfg.c **** 
 243              		.loc 1 258 0
 244 0020 0232     		adds	r2, r2, #2
 245 0022 1370     		strb	r3, [r2]
 261:Generated_Source\PSoC5/cyfitter_cfg.c **** 
 246              		.loc 1 261 0
 247 0024 0622     		movs	r2, #6
 248 0026 314B     		ldr	r3, .L23+8
 249 0028 1A70     		strb	r2, [r3]
 264:Generated_Source\PSoC5/cyfitter_cfg.c **** 	CY_SET_XTND_REG8((void CYFAR *)(CYREG_FASTCLK_XMHZ_CSR), 0x05u);
 250              		.loc 1 264 0
 251 002a 43F21332 		movw	r2, #13075
 252 002e EE3B     		subs	r3, r3, #238
 253 0030 1A80     		strh	r2, [r3]	@ movhi
 265:Generated_Source\PSoC5/cyfitter_cfg.c **** 	/* Wait up to 130000us for the XTAL to lock */
 254              		.loc 1 265 0
 255 0032 023B     		subs	r3, r3, #2
 256 0034 0522     		movs	r2, #5
 257 0036 1A70     		strb	r2, [r3]
 267:Generated_Source\PSoC5/cyfitter_cfg.c **** 	for (timeout = 130000u / 10u; (timeout > 0u) && ((CY_GET_XTND_REG8((void CYFAR *)CYREG_FASTCLK_XMH
 258              		.loc 1 267 0
 259 0038 1B78     		ldrb	r3, [r3]	@ zero_extendqisi2
 260              	.LVL17:
 268:Generated_Source\PSoC5/cyfitter_cfg.c **** 	{ 
 261              		.loc 1 268 0
 262 003a 43F2C824 		movw	r4, #13000
 263 003e 04E0     		b	.L15
 264              	.LVL18:
 265              	.L17:
 271:Generated_Source\PSoC5/cyfitter_cfg.c **** 	}
 266              		.loc 1 271 0 discriminator 4
 267 0040 4FF4F070 		mov	r0, #480
 268 0044 FFF7FEFF 		bl	CyDelayCycles
 269              	.LVL19:
 268:Generated_Source\PSoC5/cyfitter_cfg.c **** 	{ 
ARM GAS  C:\Users\kopusov.FT\AppData\Local\Temp\ccN74RdE.s 			page 12


 270              		.loc 1 268 0 discriminator 4
 271 0048 013C     		subs	r4, r4, #1
 272              	.LVL20:
 273              	.L15:
 268:Generated_Source\PSoC5/cyfitter_cfg.c **** 	{ 
 274              		.loc 1 268 0 is_stmt 0 discriminator 1
 275 004a 24B1     		cbz	r4, .L16
 268:Generated_Source\PSoC5/cyfitter_cfg.c **** 	{ 
 276              		.loc 1 268 0 discriminator 3
 277 004c 284B     		ldr	r3, .L23+12
 278 004e 1B78     		ldrb	r3, [r3]	@ zero_extendqisi2
 279 0050 13F0800F 		tst	r3, #128
 280 0054 F4D1     		bne	.L17
 281              	.L16:
 273:Generated_Source\PSoC5/cyfitter_cfg.c **** 	{
 282              		.loc 1 273 0 is_stmt 1
 283 0056 14B9     		cbnz	r4, .L18
 275:Generated_Source\PSoC5/cyfitter_cfg.c **** 	}
 284              		.loc 1 275 0
 285 0058 0120     		movs	r0, #1
 286 005a FFF7FEFF 		bl	CyClockStartupError
 287              	.LVL21:
 288              	.L18:
 279:Generated_Source\PSoC5/cyfitter_cfg.c **** 
 289              		.loc 1 279 0
 290 005e 4FF40072 		mov	r2, #512
 291 0062 244B     		ldr	r3, .L23+16
 292 0064 1A80     		strh	r2, [r3]	@ movhi
 282:Generated_Source\PSoC5/cyfitter_cfg.c **** 	CY_SET_XTND_REG8((void CYFAR *)(CYREG_CLKDIST_CR), 0x01u);
 293              		.loc 1 282 0
 294 0066 4FF4E162 		mov	r2, #1800
 295 006a 03F21E23 		addw	r3, r3, #542
 296 006e 1A80     		strh	r2, [r3]	@ movhi
 283:Generated_Source\PSoC5/cyfitter_cfg.c **** 	CY_SET_XTND_REG16((void CYFAR *)(CYREG_FASTCLK_PLL_CFG0), 0x1251u);
 297              		.loc 1 283 0
 298 0070 0122     		movs	r2, #1
 299 0072 4FF04023 		mov	r3, #1073758208
 300 0076 1A70     		strb	r2, [r3]
 284:Generated_Source\PSoC5/cyfitter_cfg.c **** 	/* Wait up to 250us for the PLL to lock */
 301              		.loc 1 284 0
 302 0078 41F25122 		movw	r2, #4689
 303 007c 03F50873 		add	r3, r3, #544
 304 0080 1A80     		strh	r2, [r3]	@ movhi
 305              	.LVL22:
 286:Generated_Source\PSoC5/cyfitter_cfg.c **** 	for (timeout = 250u / 10u; (timeout > 0u) && (pllLock != 0x03u); timeout--)
 306              		.loc 1 286 0
 307 0082 0024     		movs	r4, #0
 287:Generated_Source\PSoC5/cyfitter_cfg.c **** 	{ 
 308              		.loc 1 287 0
 309 0084 1925     		movs	r5, #25
 310 0086 0CE0     		b	.L19
 311              	.LVL23:
 312              	.L21:
 289:Generated_Source\PSoC5/cyfitter_cfg.c **** 		CyDelayCycles(10u * 48u); /* Delay 10us based on 48MHz clock */
 313              		.loc 1 289 0 discriminator 4
 314 0088 1B4B     		ldr	r3, .L23+20
 315 008a 1B78     		ldrb	r3, [r3]	@ zero_extendqisi2
ARM GAS  C:\Users\kopusov.FT\AppData\Local\Temp\ccN74RdE.s 			page 13


 316 008c 03F00103 		and	r3, r3, #1
 317 0090 43EA4404 		orr	r4, r3, r4, lsl #1
 318              	.LVL24:
 319 0094 04F00304 		and	r4, r4, #3
 320              	.LVL25:
 290:Generated_Source\PSoC5/cyfitter_cfg.c **** 	}
 321              		.loc 1 290 0 discriminator 4
 322 0098 4FF4F070 		mov	r0, #480
 323 009c FFF7FEFF 		bl	CyDelayCycles
 324              	.LVL26:
 287:Generated_Source\PSoC5/cyfitter_cfg.c **** 	{ 
 325              		.loc 1 287 0 discriminator 4
 326 00a0 013D     		subs	r5, r5, #1
 327              	.LVL27:
 328              	.L19:
 287:Generated_Source\PSoC5/cyfitter_cfg.c **** 	{ 
 329              		.loc 1 287 0 is_stmt 0 discriminator 1
 330 00a2 0DB1     		cbz	r5, .L20
 287:Generated_Source\PSoC5/cyfitter_cfg.c **** 	{ 
 331              		.loc 1 287 0 discriminator 3
 332 00a4 032C     		cmp	r4, #3
 333 00a6 EFD1     		bne	.L21
 334              	.L20:
 292:Generated_Source\PSoC5/cyfitter_cfg.c **** 
 335              		.loc 1 292 0 is_stmt 1
 336 00a8 4122     		movs	r2, #65
 337 00aa 4FF04023 		mov	r3, #1073758208
 338 00ae 1A70     		strb	r2, [r3]
 295:Generated_Source\PSoC5/cyfitter_cfg.c **** 	CY_SET_XTND_REG8((void CYFAR *)(CYREG_CLKDIST_MSTR0), 0x07u);
 339              		.loc 1 295 0
 340 00b0 7022     		movs	r2, #112
 341 00b2 03F50073 		add	r3, r3, #512
 342 00b6 1A70     		strb	r2, [r3]
 296:Generated_Source\PSoC5/cyfitter_cfg.c **** 	CY_SET_XTND_REG8((void CYFAR *)(CYREG_CLKDIST_BCFG0), 0x00u);
 343              		.loc 1 296 0
 344 00b8 0E4A     		ldr	r2, .L23+16
 345 00ba 0723     		movs	r3, #7
 346 00bc 1370     		strb	r3, [r2]
 297:Generated_Source\PSoC5/cyfitter_cfg.c **** 	CY_SET_XTND_REG8((void CYFAR *)(CYREG_CLKDIST_BCFG2), 0x48u);
 347              		.loc 1 297 0
 348 00be 0023     		movs	r3, #0
 349 00c0 0E49     		ldr	r1, .L23+24
 350 00c2 0B70     		strb	r3, [r1]
 298:Generated_Source\PSoC5/cyfitter_cfg.c **** 	CY_SET_XTND_REG8((void CYFAR *)(CYREG_CLKDIST_MSTR0), 0x00u);
 351              		.loc 1 298 0
 352 00c4 4820     		movs	r0, #72
 353 00c6 0231     		adds	r1, r1, #2
 354 00c8 0870     		strb	r0, [r1]
 299:Generated_Source\PSoC5/cyfitter_cfg.c **** 
 355              		.loc 1 299 0
 356 00ca 1370     		strb	r3, [r2]
 302:Generated_Source\PSoC5/cyfitter_cfg.c **** 	CY_SET_XTND_REG8((void CYFAR *)(CYREG_CLKDIST_LD), 0x02u);
 357              		.loc 1 302 0
 358 00cc 0532     		adds	r2, r2, #5
 359 00ce 1370     		strb	r3, [r2]
 303:Generated_Source\PSoC5/cyfitter_cfg.c **** 
 360              		.loc 1 303 0
ARM GAS  C:\Users\kopusov.FT\AppData\Local\Temp\ccN74RdE.s 			page 14


 361 00d0 0222     		movs	r2, #2
 362 00d2 0B4B     		ldr	r3, .L23+28
 363 00d4 1A70     		strb	r2, [r3]
 305:Generated_Source\PSoC5/cyfitter_cfg.c **** }
 364              		.loc 1 305 0
 365 00d6 0B4A     		ldr	r2, .L23+32
 366 00d8 1378     		ldrb	r3, [r2]	@ zero_extendqisi2
 367 00da 43F00703 		orr	r3, r3, #7
 368 00de 1370     		strb	r3, [r2]
 369 00e0 38BD     		pop	{r3, r4, r5, pc}
 370              	.LVL28:
 371              	.L24:
 372 00e2 00BF     		.align	2
 373              	.L23:
 374 00e4 80400040 		.word	1073758336
 375 00e8 82400040 		.word	1073758338
 376 00ec 00430040 		.word	1073758976
 377 00f0 10420040 		.word	1073758736
 378 00f4 04400040 		.word	1073758212
 379 00f8 25420040 		.word	1073758757
 380 00fc 06400040 		.word	1073758214
 381 0100 01400040 		.word	1073758209
 382 0104 A2430040 		.word	1073759138
 383              		.cfi_endproc
 384              	.LFE5:
 385              		.size	ClockSetup, .-ClockSetup
 386              		.section	.text.CYCONFIGCPY,"ax",%progbits
 387              		.align	2
 388              		.thumb
 389              		.thumb_func
 390              		.type	CYCONFIGCPY, %function
 391              	CYCONFIGCPY:
 392              	.LFB1:
  71:Generated_Source\PSoC5/cyfitter_cfg.c **** 	(void)memcpy(dest, src, n);
 393              		.loc 1 71 0
 394              		.cfi_startproc
 395              		@ args = 0, pretend = 0, frame = 0
 396              		@ frame_needed = 0, uses_anonymous_args = 0
 397              	.LVL29:
 398 0000 08B5     		push	{r3, lr}
 399              		.cfi_def_cfa_offset 8
 400              		.cfi_offset 3, -8
 401              		.cfi_offset 14, -4
  72:Generated_Source\PSoC5/cyfitter_cfg.c **** }
 402              		.loc 1 72 0
 403 0002 FFF7FEFF 		bl	memcpy
 404              	.LVL30:
 405 0006 08BD     		pop	{r3, pc}
 406              		.cfi_endproc
 407              	.LFE1:
 408              		.size	CYCONFIGCPY, .-CYCONFIGCPY
 409              		.section	.text.SetAnalogRoutingPumps,"ax",%progbits
 410              		.align	2
 411              		.global	SetAnalogRoutingPumps
 412              		.thumb
 413              		.thumb_func
 414              		.type	SetAnalogRoutingPumps, %function
ARM GAS  C:\Users\kopusov.FT\AppData\Local\Temp\ccN74RdE.s 			page 15


 415              	SetAnalogRoutingPumps:
 416              	.LFB7:
 340:Generated_Source\PSoC5/cyfitter_cfg.c **** }
 341:Generated_Source\PSoC5/cyfitter_cfg.c **** 
 342:Generated_Source\PSoC5/cyfitter_cfg.c **** 
 343:Generated_Source\PSoC5/cyfitter_cfg.c **** /*******************************************************************************
 344:Generated_Source\PSoC5/cyfitter_cfg.c **** * Function Name: SetAnalogRoutingPumps
 345:Generated_Source\PSoC5/cyfitter_cfg.c **** ********************************************************************************
 346:Generated_Source\PSoC5/cyfitter_cfg.c **** *
 347:Generated_Source\PSoC5/cyfitter_cfg.c **** * Summary:
 348:Generated_Source\PSoC5/cyfitter_cfg.c **** * Enables or disables the analog pumps feeding analog routing switches.
 349:Generated_Source\PSoC5/cyfitter_cfg.c **** * Intended to be called at startup, based on the Vdda system configuration;
 350:Generated_Source\PSoC5/cyfitter_cfg.c **** * may be called during operation when the user informs us that the Vdda voltage
 351:Generated_Source\PSoC5/cyfitter_cfg.c **** * crossed the pump threshold.
 352:Generated_Source\PSoC5/cyfitter_cfg.c **** *
 353:Generated_Source\PSoC5/cyfitter_cfg.c **** * Parameters:
 354:Generated_Source\PSoC5/cyfitter_cfg.c **** *  enabled - 1 to enable the pumps, 0 to disable the pumps
 355:Generated_Source\PSoC5/cyfitter_cfg.c **** *
 356:Generated_Source\PSoC5/cyfitter_cfg.c **** * Return:
 357:Generated_Source\PSoC5/cyfitter_cfg.c **** *  void
 358:Generated_Source\PSoC5/cyfitter_cfg.c **** *
 359:Generated_Source\PSoC5/cyfitter_cfg.c **** *******************************************************************************/
 360:Generated_Source\PSoC5/cyfitter_cfg.c **** void SetAnalogRoutingPumps(uint8 enabled)
 361:Generated_Source\PSoC5/cyfitter_cfg.c **** {
 417              		.loc 1 361 0
 418              		.cfi_startproc
 419              		@ args = 0, pretend = 0, frame = 0
 420              		@ frame_needed = 0, uses_anonymous_args = 0
 421              		@ link register save eliminated.
 422              	.LVL31:
 362:Generated_Source\PSoC5/cyfitter_cfg.c **** 	uint8 regValue = CY_GET_XTND_REG8((void CYFAR *)CYREG_PUMP_CR0);
 423              		.loc 1 362 0
 424 0000 054B     		ldr	r3, .L30
 425 0002 1B78     		ldrb	r3, [r3]	@ zero_extendqisi2
 426 0004 DBB2     		uxtb	r3, r3
 427              	.LVL32:
 363:Generated_Source\PSoC5/cyfitter_cfg.c **** 	if (enabled != 0u)
 428              		.loc 1 363 0
 429 0006 10B1     		cbz	r0, .L28
 364:Generated_Source\PSoC5/cyfitter_cfg.c **** 	{
 365:Generated_Source\PSoC5/cyfitter_cfg.c **** 		regValue |= 0x22u;
 430              		.loc 1 365 0
 431 0008 43F02203 		orr	r3, r3, #34
 432              	.LVL33:
 433 000c 01E0     		b	.L29
 434              	.L28:
 366:Generated_Source\PSoC5/cyfitter_cfg.c **** 	}
 367:Generated_Source\PSoC5/cyfitter_cfg.c **** 	else
 368:Generated_Source\PSoC5/cyfitter_cfg.c **** 	{
 369:Generated_Source\PSoC5/cyfitter_cfg.c **** 		regValue &= (uint8)~0x22u;
 435              		.loc 1 369 0
 436 000e 03F0DD03 		and	r3, r3, #221
 437              	.LVL34:
 438              	.L29:
 370:Generated_Source\PSoC5/cyfitter_cfg.c **** 	}
 371:Generated_Source\PSoC5/cyfitter_cfg.c **** 	CY_SET_XTND_REG8((void CYFAR *)CYREG_PUMP_CR0, regValue);
 439              		.loc 1 371 0
ARM GAS  C:\Users\kopusov.FT\AppData\Local\Temp\ccN74RdE.s 			page 16


 440 0012 014A     		ldr	r2, .L30
 441 0014 1370     		strb	r3, [r2]
 442 0016 7047     		bx	lr
 443              	.L31:
 444              		.align	2
 445              	.L30:
 446 0018 76580040 		.word	1073764470
 447              		.cfi_endproc
 448              	.LFE7:
 449              		.size	SetAnalogRoutingPumps, .-SetAnalogRoutingPumps
 450              		.section	.text.cyfitter_cfg,"ax",%progbits
 451              		.align	2
 452              		.global	cyfitter_cfg
 453              		.thumb
 454              		.thumb_func
 455              		.type	cyfitter_cfg, %function
 456              	cyfitter_cfg:
 457              	.LFB8:
 372:Generated_Source\PSoC5/cyfitter_cfg.c **** }
 373:Generated_Source\PSoC5/cyfitter_cfg.c **** 
 374:Generated_Source\PSoC5/cyfitter_cfg.c **** #define CY_AMUX_UNUSED CYREG_BOOST_SR
 375:Generated_Source\PSoC5/cyfitter_cfg.c **** 
 376:Generated_Source\PSoC5/cyfitter_cfg.c **** 
 377:Generated_Source\PSoC5/cyfitter_cfg.c **** /*******************************************************************************
 378:Generated_Source\PSoC5/cyfitter_cfg.c **** * Function Name: cyfitter_cfg
 379:Generated_Source\PSoC5/cyfitter_cfg.c **** ********************************************************************************
 380:Generated_Source\PSoC5/cyfitter_cfg.c **** * Summary:
 381:Generated_Source\PSoC5/cyfitter_cfg.c **** *  This function is called by the start-up code for the selected device. It
 382:Generated_Source\PSoC5/cyfitter_cfg.c **** *  performs all of the necessary device configuration based on the design
 383:Generated_Source\PSoC5/cyfitter_cfg.c **** *  settings.  This includes settings from the Design Wide Resources (DWR) such
 384:Generated_Source\PSoC5/cyfitter_cfg.c **** *  as Clocks and Pins as well as any component configuration that is necessary.
 385:Generated_Source\PSoC5/cyfitter_cfg.c **** *
 386:Generated_Source\PSoC5/cyfitter_cfg.c **** * Parameters:  
 387:Generated_Source\PSoC5/cyfitter_cfg.c **** *   void
 388:Generated_Source\PSoC5/cyfitter_cfg.c **** *
 389:Generated_Source\PSoC5/cyfitter_cfg.c **** * Return:
 390:Generated_Source\PSoC5/cyfitter_cfg.c **** *   void
 391:Generated_Source\PSoC5/cyfitter_cfg.c **** *
 392:Generated_Source\PSoC5/cyfitter_cfg.c **** *******************************************************************************/
 393:Generated_Source\PSoC5/cyfitter_cfg.c **** 
 394:Generated_Source\PSoC5/cyfitter_cfg.c **** void cyfitter_cfg(void)
 395:Generated_Source\PSoC5/cyfitter_cfg.c **** {
 458              		.loc 1 395 0
 459              		.cfi_startproc
 460              		@ args = 0, pretend = 0, frame = 0
 461              		@ frame_needed = 0, uses_anonymous_args = 0
 462 0000 38B5     		push	{r3, r4, r5, lr}
 463              		.cfi_def_cfa_offset 16
 464              		.cfi_offset 3, -16
 465              		.cfi_offset 4, -12
 466              		.cfi_offset 5, -8
 467              		.cfi_offset 14, -4
 396:Generated_Source\PSoC5/cyfitter_cfg.c **** #ifdef CYGlobalIntDisable
 397:Generated_Source\PSoC5/cyfitter_cfg.c **** 	/* Disable interrupts by default. Let user enable if/when they want. */
 398:Generated_Source\PSoC5/cyfitter_cfg.c **** 	CYGlobalIntDisable
 468              		.loc 1 398 0
 469              	@ 398 "Generated_Source\PSoC5\cyfitter_cfg.c" 1
ARM GAS  C:\Users\kopusov.FT\AppData\Local\Temp\ccN74RdE.s 			page 17


 470 0002 72B6     		CPSID   i
 471              	@ 0 "" 2
 399:Generated_Source\PSoC5/cyfitter_cfg.c **** #endif
 400:Generated_Source\PSoC5/cyfitter_cfg.c **** 
 401:Generated_Source\PSoC5/cyfitter_cfg.c **** 	/* Enable/Disable Debug functionality based on settings from System DWR */
 402:Generated_Source\PSoC5/cyfitter_cfg.c **** 	CY_SET_XTND_REG8((void CYFAR *)CYREG_MLOGIC_DEBUG, (CY_GET_XTND_REG8((void CYFAR *)CYREG_MLOGIC_DE
 472              		.loc 1 402 0
 473              		.thumb
 474 0004 564A     		ldr	r2, .L38
 475 0006 1378     		ldrb	r3, [r2]	@ zero_extendqisi2
 476 0008 43F00403 		orr	r3, r3, #4
 477 000c 1370     		strb	r3, [r2]
 478              	.LVL35:
 479              	.LBB3:
 403:Generated_Source\PSoC5/cyfitter_cfg.c **** 
 404:Generated_Source\PSoC5/cyfitter_cfg.c **** 	{
 405:Generated_Source\PSoC5/cyfitter_cfg.c **** 
 406:Generated_Source\PSoC5/cyfitter_cfg.c **** 		CYPACKED typedef struct {
 407:Generated_Source\PSoC5/cyfitter_cfg.c **** 			void CYFAR *address;
 408:Generated_Source\PSoC5/cyfitter_cfg.c **** 			uint16 size;
 409:Generated_Source\PSoC5/cyfitter_cfg.c **** 		} CYPACKED_ATTR cfg_memset_t;
 410:Generated_Source\PSoC5/cyfitter_cfg.c **** 
 411:Generated_Source\PSoC5/cyfitter_cfg.c **** 
 412:Generated_Source\PSoC5/cyfitter_cfg.c **** 		CYPACKED typedef struct {
 413:Generated_Source\PSoC5/cyfitter_cfg.c **** 			void CYFAR *dest;
 414:Generated_Source\PSoC5/cyfitter_cfg.c **** 			const void CYFAR *src;
 415:Generated_Source\PSoC5/cyfitter_cfg.c **** 			uint16 size;
 416:Generated_Source\PSoC5/cyfitter_cfg.c **** 		} CYPACKED_ATTR cfg_memcpy_t;
 417:Generated_Source\PSoC5/cyfitter_cfg.c **** 
 418:Generated_Source\PSoC5/cyfitter_cfg.c **** 		static const cfg_memset_t CYCODE cfg_memset_list [] = {
 419:Generated_Source\PSoC5/cyfitter_cfg.c **** 			/* address, size */
 420:Generated_Source\PSoC5/cyfitter_cfg.c **** 			{(void CYFAR *)(CYREG_PRT4_DR), 32u},
 421:Generated_Source\PSoC5/cyfitter_cfg.c **** 			{(void CYFAR *)(CYDEV_UCFG_B0_P0_U0_BASE), 4096u},
 422:Generated_Source\PSoC5/cyfitter_cfg.c **** 			{(void CYFAR *)(CYDEV_UCFG_B1_P2_U0_BASE), 1024u},
 423:Generated_Source\PSoC5/cyfitter_cfg.c **** 			{(void CYFAR *)(CYDEV_UCFG_B1_P4_U1_BASE), 896u},
 424:Generated_Source\PSoC5/cyfitter_cfg.c **** 			{(void CYFAR *)(CYDEV_UCFG_DSI0_BASE), 2560u},
 425:Generated_Source\PSoC5/cyfitter_cfg.c **** 			{(void CYFAR *)(CYDEV_UCFG_DSI12_BASE), 512u},
 426:Generated_Source\PSoC5/cyfitter_cfg.c **** 			{(void CYFAR *)(CYREG_BCTL0_MDCLK_EN), 32u},
 427:Generated_Source\PSoC5/cyfitter_cfg.c **** 		};
 428:Generated_Source\PSoC5/cyfitter_cfg.c **** 
 429:Generated_Source\PSoC5/cyfitter_cfg.c **** 		static const cfg_memcpy_t CYCODE cfg_memcpy_list [] = {
 430:Generated_Source\PSoC5/cyfitter_cfg.c **** 			/* dest, src, size */
 431:Generated_Source\PSoC5/cyfitter_cfg.c **** 			{(void CYFAR *)(CYREG_IDMUX_DRQ_CTL0), BS_IDMUX_VAL, 6u},
 432:Generated_Source\PSoC5/cyfitter_cfg.c **** 			{(void CYFAR *)(CYDEV_PRTDSI_PRT12_BASE), BS_IOPORT_7_VAL, 6u},
 433:Generated_Source\PSoC5/cyfitter_cfg.c **** 			{(void CYFAR *)(CYDEV_UCFG_B1_P4_U0_BASE), BS_UDB_0_1_1_CONFIG_VAL, 128u},
 434:Generated_Source\PSoC5/cyfitter_cfg.c **** 		};
 435:Generated_Source\PSoC5/cyfitter_cfg.c **** 
 436:Generated_Source\PSoC5/cyfitter_cfg.c **** 		uint8 CYDATA i;
 437:Generated_Source\PSoC5/cyfitter_cfg.c **** 
 438:Generated_Source\PSoC5/cyfitter_cfg.c **** 		/* Zero out critical memory blocks before beginning configuration */
 439:Generated_Source\PSoC5/cyfitter_cfg.c **** 		for (i = 0u; i < (sizeof(cfg_memset_list)/sizeof(cfg_memset_list[0])); i++)
 480              		.loc 1 439 0
 481 000e 0024     		movs	r4, #0
 482 0010 0CE0     		b	.L33
 483              	.LVL36:
 484              	.L34:
 485              	.LBB4:
ARM GAS  C:\Users\kopusov.FT\AppData\Local\Temp\ccN74RdE.s 			page 18


 440:Generated_Source\PSoC5/cyfitter_cfg.c **** 		{
 441:Generated_Source\PSoC5/cyfitter_cfg.c **** 			const cfg_memset_t CYCODE * CYDATA ms = &cfg_memset_list[i];
 442:Generated_Source\PSoC5/cyfitter_cfg.c **** 			CYMEMZERO(ms->address, (size_t)(uint32)(ms->size));
 486              		.loc 1 442 0 discriminator 3
 487 0012 5449     		ldr	r1, .L38+4
 488 0014 6300     		lsls	r3, r4, #1
 489 0016 1A19     		adds	r2, r3, r4
 490 0018 5200     		lsls	r2, r2, #1
 491 001a 0A44     		add	r2, r2, r1
 492 001c 2344     		add	r3, r3, r4
 493 001e 5B00     		lsls	r3, r3, #1
 494 0020 C858     		ldr	r0, [r1, r3]	@ unaligned
 495 0022 9188     		ldrh	r1, [r2, #4]
 496 0024 FFF7FEFF 		bl	CYMEMZERO
 497              	.LVL37:
 498              	.LBE4:
 439:Generated_Source\PSoC5/cyfitter_cfg.c **** 		{
 499              		.loc 1 439 0 discriminator 3
 500 0028 0134     		adds	r4, r4, #1
 501              	.LVL38:
 502 002a E4B2     		uxtb	r4, r4
 503              	.LVL39:
 504              	.L33:
 439:Generated_Source\PSoC5/cyfitter_cfg.c **** 		{
 505              		.loc 1 439 0 is_stmt 0 discriminator 1
 506 002c 062C     		cmp	r4, #6
 507 002e F0D9     		bls	.L34
 508 0030 0024     		movs	r4, #0
 509              	.LVL40:
 510 0032 0FE0     		b	.L35
 511              	.LVL41:
 512              	.L36:
 513              	.LBB5:
 443:Generated_Source\PSoC5/cyfitter_cfg.c **** 		}
 444:Generated_Source\PSoC5/cyfitter_cfg.c **** 
 445:Generated_Source\PSoC5/cyfitter_cfg.c **** 		/* Copy device configuration data into registers */
 446:Generated_Source\PSoC5/cyfitter_cfg.c **** 		for (i = 0u; i < (sizeof(cfg_memcpy_list)/sizeof(cfg_memcpy_list[0])); i++)
 447:Generated_Source\PSoC5/cyfitter_cfg.c **** 		{
 448:Generated_Source\PSoC5/cyfitter_cfg.c **** 			const cfg_memcpy_t CYCODE * CYDATA mc = &cfg_memcpy_list[i];
 449:Generated_Source\PSoC5/cyfitter_cfg.c **** 			void * CYDATA destPtr = mc->dest;
 514              		.loc 1 449 0 is_stmt 1 discriminator 3
 515 0034 4B49     		ldr	r1, .L38+4
 516 0036 A300     		lsls	r3, r4, #2
 517 0038 1A19     		adds	r2, r3, r4
 518 003a 5200     		lsls	r2, r2, #1
 519 003c 0A44     		add	r2, r2, r1
 520 003e 52F82C0F 		ldr	r0, [r2, #44]!	@ unaligned
 521              	.LVL42:
 450:Generated_Source\PSoC5/cyfitter_cfg.c **** 			const void * CYDATA srcPtr = mc->src;
 451:Generated_Source\PSoC5/cyfitter_cfg.c **** 			uint16 CYDATA numBytes = mc->size;
 522              		.loc 1 451 0 discriminator 3
 523 0042 2344     		add	r3, r3, r4
 524 0044 5B00     		lsls	r3, r3, #1
 525 0046 0B44     		add	r3, r3, r1
 526              	.LVL43:
 452:Generated_Source\PSoC5/cyfitter_cfg.c **** 			CYCONFIGCPY(destPtr, srcPtr, numBytes);
 527              		.loc 1 452 0 discriminator 3
ARM GAS  C:\Users\kopusov.FT\AppData\Local\Temp\ccN74RdE.s 			page 19


 528 0048 5168     		ldr	r1, [r2, #4]	@ unaligned
 529              	.LVL44:
 530 004a 9A8E     		ldrh	r2, [r3, #52]
 531 004c FFF7FEFF 		bl	CYCONFIGCPY
 532              	.LVL45:
 533              	.LBE5:
 446:Generated_Source\PSoC5/cyfitter_cfg.c **** 		{
 534              		.loc 1 446 0 discriminator 3
 535 0050 0134     		adds	r4, r4, #1
 536              	.LVL46:
 537 0052 E4B2     		uxtb	r4, r4
 538              	.LVL47:
 539              	.L35:
 446:Generated_Source\PSoC5/cyfitter_cfg.c **** 		{
 540              		.loc 1 446 0 is_stmt 0 discriminator 1
 541 0054 022C     		cmp	r4, #2
 542 0056 EDD9     		bls	.L36
 453:Generated_Source\PSoC5/cyfitter_cfg.c **** 		}
 454:Generated_Source\PSoC5/cyfitter_cfg.c **** 
 455:Generated_Source\PSoC5/cyfitter_cfg.c **** 		cfg_write_bytes32(cy_cfg_addr_table, cy_cfg_data_table);
 543              		.loc 1 455 0 is_stmt 1
 544 0058 4FF09040 		mov	r0, #1207959552
 545 005c 4249     		ldr	r1, .L38+8
 546 005e FFF7FEFF 		bl	cfg_write_bytes32
 547              	.LVL48:
 456:Generated_Source\PSoC5/cyfitter_cfg.c **** 
 457:Generated_Source\PSoC5/cyfitter_cfg.c **** 		/* Perform normal device configuration. Order is not critical for these items. */
 458:Generated_Source\PSoC5/cyfitter_cfg.c **** 		CYMEMZERO((void CYFAR *)(CYREG_PHUB_CFGMEM0_CFG0), 4u);
 548              		.loc 1 458 0
 549 0062 4248     		ldr	r0, .L38+12
 550 0064 0421     		movs	r1, #4
 551 0066 FFF7FEFF 		bl	CYMEMZERO
 552              	.LVL49:
 459:Generated_Source\PSoC5/cyfitter_cfg.c **** 		CYCONFIGCPY((void CYFAR *)(CYREG_PHUB_CFGMEM1_CFG0), (const void CYFAR *)(BS_PHUB_CFGMEM1_VAL), 4
 553              		.loc 1 459 0
 554 006a 4148     		ldr	r0, .L38+16
 555 006c 4149     		ldr	r1, .L38+20
 556 006e 0422     		movs	r2, #4
 557 0070 FFF7FEFF 		bl	CYCONFIGCPY
 558              	.LVL50:
 460:Generated_Source\PSoC5/cyfitter_cfg.c **** 		CYMEMZERO((void CYFAR *)(CYREG_PHUB_CFGMEM2_CFG0), 4u);
 559              		.loc 1 460 0
 560 0074 4048     		ldr	r0, .L38+24
 561 0076 0421     		movs	r1, #4
 562 0078 FFF7FEFF 		bl	CYMEMZERO
 563              	.LVL51:
 461:Generated_Source\PSoC5/cyfitter_cfg.c **** 		CYMEMZERO((void CYFAR *)(CYREG_PHUB_CFGMEM3_CFG0), 4u);
 564              		.loc 1 461 0
 565 007c 3F48     		ldr	r0, .L38+28
 566 007e 0421     		movs	r1, #4
 567 0080 FFF7FEFF 		bl	CYMEMZERO
 568              	.LVL52:
 462:Generated_Source\PSoC5/cyfitter_cfg.c **** 		CYCONFIGCPY((void CYFAR *)(CYREG_PHUB_CFGMEM4_CFG0), (const void CYFAR *)(BS_PHUB_CFGMEM4_VAL), 4
 569              		.loc 1 462 0
 570 0084 3E48     		ldr	r0, .L38+32
 571 0086 3F49     		ldr	r1, .L38+36
 572 0088 0422     		movs	r2, #4
ARM GAS  C:\Users\kopusov.FT\AppData\Local\Temp\ccN74RdE.s 			page 20


 573 008a FFF7FEFF 		bl	CYCONFIGCPY
 574              	.LVL53:
 463:Generated_Source\PSoC5/cyfitter_cfg.c **** 		CYCONFIGCPY((void CYFAR *)(CYREG_PHUB_CFGMEM5_CFG0), (const void CYFAR *)(BS_PHUB_CFGMEM5_VAL), 4
 575              		.loc 1 463 0
 576 008e 3E48     		ldr	r0, .L38+40
 577 0090 3E49     		ldr	r1, .L38+44
 578 0092 0422     		movs	r2, #4
 579 0094 FFF7FEFF 		bl	CYCONFIGCPY
 580              	.LVL54:
 464:Generated_Source\PSoC5/cyfitter_cfg.c **** 		CYCONFIGCPY((void CYFAR *)(CYREG_PHUB_CFGMEM6_CFG0), (const void CYFAR *)(BS_PHUB_CFGMEM6_VAL), 4
 581              		.loc 1 464 0
 582 0098 3D48     		ldr	r0, .L38+48
 583 009a 3E49     		ldr	r1, .L38+52
 584 009c 0422     		movs	r2, #4
 585 009e FFF7FEFF 		bl	CYCONFIGCPY
 586              	.LVL55:
 465:Generated_Source\PSoC5/cyfitter_cfg.c **** 		CYMEMZERO((void CYFAR *)(CYREG_PHUB_CFGMEM7_CFG0), 4u);
 587              		.loc 1 465 0
 588 00a2 3D48     		ldr	r0, .L38+56
 589 00a4 0421     		movs	r1, #4
 590 00a6 FFF7FEFF 		bl	CYMEMZERO
 591              	.LVL56:
 466:Generated_Source\PSoC5/cyfitter_cfg.c **** 		CYMEMZERO((void CYFAR *)(CYREG_PHUB_CFGMEM8_CFG0), 4u);
 592              		.loc 1 466 0
 593 00aa 3C48     		ldr	r0, .L38+60
 594 00ac 0421     		movs	r1, #4
 595 00ae FFF7FEFF 		bl	CYMEMZERO
 596              	.LVL57:
 467:Generated_Source\PSoC5/cyfitter_cfg.c **** 		CYCONFIGCPY((void CYFAR *)(CYREG_PHUB_CFGMEM9_CFG0), (const void CYFAR *)(BS_PHUB_CFGMEM9_VAL), 4
 597              		.loc 1 467 0
 598 00b2 3B48     		ldr	r0, .L38+64
 599 00b4 3B49     		ldr	r1, .L38+68
 600 00b6 0422     		movs	r2, #4
 601 00b8 FFF7FEFF 		bl	CYCONFIGCPY
 602              	.LVL58:
 468:Generated_Source\PSoC5/cyfitter_cfg.c **** 
 469:Generated_Source\PSoC5/cyfitter_cfg.c **** 		/* Enable digital routing */
 470:Generated_Source\PSoC5/cyfitter_cfg.c **** 		CY_SET_XTND_REG8((void CYFAR *)CYREG_BCTL0_BANK_CTL, CY_GET_XTND_REG8((void CYFAR *)CYREG_BCTL0_B
 603              		.loc 1 470 0
 604 00bc 3A4A     		ldr	r2, .L38+72
 605 00be 1378     		ldrb	r3, [r2]	@ zero_extendqisi2
 606 00c0 43F00203 		orr	r3, r3, #2
 607 00c4 1370     		strb	r3, [r2]
 471:Generated_Source\PSoC5/cyfitter_cfg.c **** 		CY_SET_XTND_REG8((void CYFAR *)CYREG_BCTL1_BANK_CTL, CY_GET_XTND_REG8((void CYFAR *)CYREG_BCTL1_B
 608              		.loc 1 471 0
 609 00c6 1032     		adds	r2, r2, #16
 610 00c8 1378     		ldrb	r3, [r2]	@ zero_extendqisi2
 611 00ca 43F00203 		orr	r3, r3, #2
 612 00ce 1370     		strb	r3, [r2]
 472:Generated_Source\PSoC5/cyfitter_cfg.c **** 
 473:Generated_Source\PSoC5/cyfitter_cfg.c **** 		/* Enable UDB array */
 474:Generated_Source\PSoC5/cyfitter_cfg.c **** 		CY_SET_XTND_REG8((void CYFAR *)CYREG_PM_ACT_CFG0, CY_GET_XTND_REG8((void CYFAR *)CYREG_PM_ACT_CFG
 613              		.loc 1 474 0
 614 00d0 364C     		ldr	r4, .L38+76
 615              	.LVL59:
 616 00d2 2378     		ldrb	r3, [r4]	@ zero_extendqisi2
 617 00d4 43F04003 		orr	r3, r3, #64
ARM GAS  C:\Users\kopusov.FT\AppData\Local\Temp\ccN74RdE.s 			page 21


 618 00d8 2370     		strb	r3, [r4]
 475:Generated_Source\PSoC5/cyfitter_cfg.c **** 		CY_SET_XTND_REG8((void CYFAR *)CYREG_PM_AVAIL_CR2, CY_GET_XTND_REG8((void CYFAR *)CYREG_PM_AVAIL_
 619              		.loc 1 475 0
 620 00da A2F58632 		sub	r2, r2, #68608
 621 00de 513A     		subs	r2, r2, #81
 622 00e0 1378     		ldrb	r3, [r2]	@ zero_extendqisi2
 623 00e2 43F01003 		orr	r3, r3, #16
 624 00e6 1370     		strb	r3, [r2]
 625              	.LBE3:
 476:Generated_Source\PSoC5/cyfitter_cfg.c **** 	}
 477:Generated_Source\PSoC5/cyfitter_cfg.c **** 
 478:Generated_Source\PSoC5/cyfitter_cfg.c **** 
 479:Generated_Source\PSoC5/cyfitter_cfg.c **** 	/* Perform second pass device configuration. These items must be configured in specific order afte
 480:Generated_Source\PSoC5/cyfitter_cfg.c **** 	CYCONFIGCPY((void CYFAR *)(CYREG_PRT0_DM0), (const void CYFAR *)(BS_IOPINS0_0_VAL), 8u);
 626              		.loc 1 480 0
 627 00e8 3148     		ldr	r0, .L38+80
 628 00ea 3249     		ldr	r1, .L38+84
 629 00ec 0822     		movs	r2, #8
 630 00ee FFF7FEFF 		bl	CYCONFIGCPY
 631              	.LVL60:
 481:Generated_Source\PSoC5/cyfitter_cfg.c **** 	CYCONFIGCPY((void CYFAR *)(CYREG_PRT12_DR), (const void CYFAR *)(BS_IOPINS0_7_VAL), 10u);
 632              		.loc 1 481 0
 633 00f2 3148     		ldr	r0, .L38+88
 634 00f4 3149     		ldr	r1, .L38+92
 635 00f6 0A22     		movs	r2, #10
 636 00f8 FFF7FEFF 		bl	CYCONFIGCPY
 637              	.LVL61:
 482:Generated_Source\PSoC5/cyfitter_cfg.c **** 	CYCONFIGCPY((void CYFAR *)(CYREG_PRT12_DR + 0x0000000Bu), (const void CYFAR *)(BS_IOPINS1_7_VAL), 
 638              		.loc 1 482 0
 639 00fc 3048     		ldr	r0, .L38+96
 640 00fe 3149     		ldr	r1, .L38+100
 641 0100 0522     		movs	r2, #5
 642 0102 FFF7FEFF 		bl	CYCONFIGCPY
 643              	.LVL62:
 483:Generated_Source\PSoC5/cyfitter_cfg.c **** 	CYCONFIGCPY((void CYFAR *)(CYREG_PRT15_DR), (const void CYFAR *)(BS_IOPINS0_8_VAL), 10u);
 644              		.loc 1 483 0
 645 0106 3048     		ldr	r0, .L38+104
 646 0108 3049     		ldr	r1, .L38+108
 647 010a 0A22     		movs	r2, #10
 648 010c FFF7FEFF 		bl	CYCONFIGCPY
 649              	.LVL63:
 484:Generated_Source\PSoC5/cyfitter_cfg.c **** 	CYCONFIGCPY((void CYFAR *)(CYREG_PRT1_DM0), (const void CYFAR *)(BS_IOPINS0_1_VAL), 8u);
 650              		.loc 1 484 0
 651 0110 2F48     		ldr	r0, .L38+112
 652 0112 3049     		ldr	r1, .L38+116
 653 0114 0822     		movs	r2, #8
 654 0116 FFF7FEFF 		bl	CYCONFIGCPY
 655              	.LVL64:
 485:Generated_Source\PSoC5/cyfitter_cfg.c **** 	CYCONFIGCPY((void CYFAR *)(CYREG_PRT2_DM0), (const void CYFAR *)(BS_IOPINS0_2_VAL), 8u);
 656              		.loc 1 485 0
 657 011a 2F48     		ldr	r0, .L38+120
 658 011c 2F49     		ldr	r1, .L38+124
 659 011e 0822     		movs	r2, #8
 660 0120 FFF7FEFF 		bl	CYCONFIGCPY
 661              	.LVL65:
 486:Generated_Source\PSoC5/cyfitter_cfg.c **** 	CYCONFIGCPY((void CYFAR *)(CYREG_PRT3_DM0), (const void CYFAR *)(BS_IOPINS0_3_VAL), 8u);
 662              		.loc 1 486 0
ARM GAS  C:\Users\kopusov.FT\AppData\Local\Temp\ccN74RdE.s 			page 22


 663 0124 2E48     		ldr	r0, .L38+128
 664 0126 2F49     		ldr	r1, .L38+132
 665 0128 0822     		movs	r2, #8
 666 012a FFF7FEFF 		bl	CYCONFIGCPY
 667              	.LVL66:
 487:Generated_Source\PSoC5/cyfitter_cfg.c **** 	CYCONFIGCPY((void CYFAR *)(CYREG_PRT6_DM0), (const void CYFAR *)(BS_IOPINS0_6_VAL), 8u);
 668              		.loc 1 487 0
 669 012e 2E48     		ldr	r0, .L38+136
 670 0130 2E49     		ldr	r1, .L38+140
 671 0132 0822     		movs	r2, #8
 672 0134 FFF7FEFF 		bl	CYCONFIGCPY
 673              	.LVL67:
 488:Generated_Source\PSoC5/cyfitter_cfg.c **** 	/* Switch Boost to the precision bandgap reference from its internal reference */
 489:Generated_Source\PSoC5/cyfitter_cfg.c **** 	CY_SET_REG8((void CYXDATA *)CYREG_BOOST_CR2, (CY_GET_REG8((void CYXDATA *)CYREG_BOOST_CR2) | 0x08u
 674              		.loc 1 489 0
 675 0138 2D4A     		ldr	r2, .L38+144
 676 013a 1378     		ldrb	r3, [r2]	@ zero_extendqisi2
 677 013c 43F00803 		orr	r3, r3, #8
 678 0140 1370     		strb	r3, [r2]
 490:Generated_Source\PSoC5/cyfitter_cfg.c **** 
 491:Generated_Source\PSoC5/cyfitter_cfg.c **** 	/* Set Flash Cycles based on max possible frequency in case a glitch occurs during ClockSetup(). *
 492:Generated_Source\PSoC5/cyfitter_cfg.c **** 	CY_SET_XTND_REG8((void CYFAR *)(CYREG_CACHE_CC_CTL), (((CYDEV_INSTRUCT_CACHE_ENABLED) != 0) ? 0x01
 679              		.loc 1 492 0
 680 0142 2C4D     		ldr	r5, .L38+148
 681 0144 0123     		movs	r3, #1
 682 0146 2B70     		strb	r3, [r5]
 493:Generated_Source\PSoC5/cyfitter_cfg.c **** 	/* Setup clocks based on selections from Clock DWR */
 494:Generated_Source\PSoC5/cyfitter_cfg.c **** 	ClockSetup();
 683              		.loc 1 494 0
 684 0148 FFF7FEFF 		bl	ClockSetup
 685              	.LVL68:
 495:Generated_Source\PSoC5/cyfitter_cfg.c **** 	/* Set Flash Cycles based on newly configured 24.00MHz Bus Clock. */
 496:Generated_Source\PSoC5/cyfitter_cfg.c **** 	CY_SET_XTND_REG8((void CYFAR *)(CYREG_CACHE_CC_CTL), (((CYDEV_INSTRUCT_CACHE_ENABLED) != 0) ? 0x81
 686              		.loc 1 496 0
 687 014c 8123     		movs	r3, #129
 688 014e 2B70     		strb	r3, [r5]
 497:Generated_Source\PSoC5/cyfitter_cfg.c **** 
 498:Generated_Source\PSoC5/cyfitter_cfg.c **** 	/* Perform basic analog initialization to defaults */
 499:Generated_Source\PSoC5/cyfitter_cfg.c **** 	AnalogSetDefault();
 689              		.loc 1 499 0
 690 0150 FFF7FEFF 		bl	AnalogSetDefault
 691              	.LVL69:
 500:Generated_Source\PSoC5/cyfitter_cfg.c **** 
 501:Generated_Source\PSoC5/cyfitter_cfg.c **** 	/* Configure alternate active mode */
 502:Generated_Source\PSoC5/cyfitter_cfg.c **** 	CYCONFIGCPY((void CYFAR *)CYDEV_PM_STBY_BASE, (const void CYFAR *)CYDEV_PM_ACT_BASE, 14u);
 692              		.loc 1 502 0
 693 0154 2848     		ldr	r0, .L38+152
 694 0156 2146     		mov	r1, r4
 695 0158 0E22     		movs	r2, #14
 696 015a FFF7FEFF 		bl	CYCONFIGCPY
 697              	.LVL70:
 698 015e 38BD     		pop	{r3, r4, r5, pc}
 699              	.L39:
 700              		.align	2
 701              	.L38:
 702 0160 E8460040 		.word	1073759976
 703 0164 00000000 		.word	.LANCHOR0
ARM GAS  C:\Users\kopusov.FT\AppData\Local\Temp\ccN74RdE.s 			page 23


 704 0168 98000048 		.word	1207959704
 705 016c 00760040 		.word	1073772032
 706 0170 08760040 		.word	1073772040
 707 0174 140F0048 		.word	1207963412
 708 0178 10760040 		.word	1073772048
 709 017c 18760040 		.word	1073772056
 710 0180 20760040 		.word	1073772064
 711 0184 180F0048 		.word	1207963416
 712 0188 28760040 		.word	1073772072
 713 018c 1C0F0048 		.word	1207963420
 714 0190 30760040 		.word	1073772080
 715 0194 200F0048 		.word	1207963424
 716 0198 38760040 		.word	1073772088
 717 019c 40760040 		.word	1073772096
 718 01a0 48760040 		.word	1073772104
 719 01a4 240F0048 		.word	1207963428
 720 01a8 03500140 		.word	1073827843
 721 01ac A0430040 		.word	1073759136
 722 01b0 02510040 		.word	1073762562
 723 01b4 CC0E0048 		.word	1207963340
 724 01b8 C0510040 		.word	1073762752
 725 01bc D40E0048 		.word	1207963348
 726 01c0 CB510040 		.word	1073762763
 727 01c4 E00E0048 		.word	1207963360
 728 01c8 F0510040 		.word	1073762800
 729 01cc E80E0048 		.word	1207963368
 730 01d0 12510040 		.word	1073762578
 731 01d4 F40E0048 		.word	1207963380
 732 01d8 22510040 		.word	1073762594
 733 01dc FC0E0048 		.word	1207963388
 734 01e0 32510040 		.word	1073762610
 735 01e4 040F0048 		.word	1207963396
 736 01e8 62510040 		.word	1073762658
 737 01ec 0C0F0048 		.word	1207963404
 738 01f0 22430040 		.word	1073759010
 739 01f4 00480040 		.word	1073760256
 740 01f8 B0430040 		.word	1073759152
 741              		.cfi_endproc
 742              	.LFE8:
 743              		.size	cyfitter_cfg, .-cyfitter_cfg
 744              		.section	.rodata
 745              		.align	2
 746              		.set	.LANCHOR0,. + 0
 747              		.type	cfg_memset_list.4888, %object
 748              		.size	cfg_memset_list.4888, 42
 749              	cfg_memset_list.4888:
 750 0000 40510040 		.word	1073762624
 751 0004 2000     		.short	32
 752 0006 00000140 		.4byte	1073807360
 753 000a 0010     		.short	4096
 754 000c 00140140 		.word	1073812480
 755 0010 0004     		.short	1024
 756 0012 80180140 		.4byte	1073813632
 757 0016 8003     		.short	896
 758 0018 00400140 		.word	1073823744
 759 001c 000A     		.short	2560
 760 001e 004C0140 		.4byte	1073826816
ARM GAS  C:\Users\kopusov.FT\AppData\Local\Temp\ccN74RdE.s 			page 24


 761 0022 0002     		.short	512
 762 0024 00500140 		.word	1073827840
 763 0028 2000     		.short	32
 764 002a 0000     		.space	2
 765              		.type	cfg_memcpy_list.4889, %object
 766              		.size	cfg_memcpy_list.4889, 30
 767              	cfg_memcpy_list.4889:
 768 002c 10510140 		.word	1073828112
 769 0030 3C0E0048 		.word	1207963196
 770 0034 0600     		.short	6
 771 0036 60520040 		.4byte	1073762912
 772 003a 440E0048 		.4byte	1207963204
 773 003e 0600     		.short	6
 774 0040 00180140 		.word	1073813504
 775 0044 4C0E0048 		.word	1207963212
 776 0048 8000     		.short	128
 777 004a 0000     		.text
 778              	.Letext0:
 779              		.file 2 "c:\\program files (x86)\\cypress\\psoc creator\\4.0\\psoc creator\\import\\gnu\\arm\\4.9.
 780              		.file 3 "Generated_Source\\PSoC5\\cytypes.h"
 781              		.file 4 "Generated_Source\\PSoC5\\CyLib.h"