ARM GAS  C:\Users\kopusov.FT\AppData\Local\Temp\cctW827O.s 			page 1


   1              		.syntax unified
   2              		.cpu cortex-m3
   3              		.fpu softvfp
   4              		.eabi_attribute 20, 1
   5              		.eabi_attribute 21, 1
   6              		.eabi_attribute 23, 3
   7              		.eabi_attribute 24, 1
   8              		.eabi_attribute 25, 1
   9              		.eabi_attribute 26, 1
  10              		.eabi_attribute 30, 1
  11              		.eabi_attribute 34, 1
  12              		.eabi_attribute 18, 4
  13              		.thumb
  14              		.file	"main.c"
  15              		.text
  16              	.Ltext0:
  17              		.cfi_sections	.debug_frame
  18              		.section	.text.main,"ax",%progbits
  19              		.align	2
  20              		.global	main
  21              		.thumb
  22              		.thumb_func
  23              		.type	main, %function
  24              	main:
  25              	.LFB63:
  26              		.file 1 "main.c"
   1:main.c        **** /* ========================================
   2:main.c        ****  *
   3:main.c        ****  * Copyright YOUR COMPANY, THE YEAR
   4:main.c        ****  * All Rights Reserved
   5:main.c        ****  * UNPUBLISHED, LICENSED SOFTWARE.
   6:main.c        ****  *
   7:main.c        ****  * CONFIDENTIAL AND PROPRIETARY INFORMATION
   8:main.c        ****  * WHICH IS THE PROPERTY OF your company.
   9:main.c        ****  *
  10:main.c        ****  * ========================================
  11:main.c        **** */
  12:main.c        **** #include "project.h"
  13:main.c        **** #include "stdio.h"
  14:main.c        **** 
  15:main.c        **** 
  16:main.c        **** #define USBFS_DEVICE    (0u)
  17:main.c        **** /* The buffer size is equal to the maximum packet size of the IN and OUT bulk
  18:main.c        **** * endpoints.
  19:main.c        **** */
  20:main.c        **** #define USBUART_BUFFER_SIZE (64u)
  21:main.c        **** #define LINE_STR_LENGTH     (20u)
  22:main.c        **** 
  23:main.c        **** #define BASE_MDIO_ADDRESS       0x8000  /* Start address for the incremental address variable */
  24:main.c        **** 
  25:main.c        **** 
  26:main.c        **** /* MDIO Host Variables */
  27:main.c        **** uint16 HostAddress    = BASE_MDIO_ADDRESS;    /* Address data for the MDIO frames */
  28:main.c        **** uint16 HostData       = 0x0000;               /* Read data for the MDIO frames */
  29:main.c        **** 
  30:main.c        **** /* Enable/Disable the MDIO Host */
  31:main.c        **** /* This might be disable in case an external MDIO Host is used */
ARM GAS  C:\Users\kopusov.FT\AppData\Local\Temp\cctW827O.s 			page 2


  32:main.c        **** #define MDIO_HOST_ENABLE 1
  33:main.c        **** 
  34:main.c        **** #define RANDOM_CONST            0xDEAD  /* Random value to generate write/read data */
  35:main.c        **** /* State Constants */
  36:main.c        **** #define STATE_WRITE 0
  37:main.c        **** #define STATE_READ  1
  38:main.c        **** 
  39:main.c        **** //static   uint16 myCounter = 0;          /* Global counter incremented in main loop */
  40:main.c        **** //static   uint8  myState = STATE_READ;  /* State variable. Default state is WRITE */
  41:main.c        **** /* Device Address of MDIO Interface (constant) */
  42:main.c        **** static const uint8  MdioDevAddr = 0x01; 
  43:main.c        **** static const uint8  MdioPhyAddr = 0x1f;
  44:main.c        **** 
  45:main.c        **** 
  46:main.c        **** 
  47:main.c        **** int main(void)
  48:main.c        **** {
  27              		.loc 1 48 0
  28              		.cfi_startproc
  29              		@ args = 0, pretend = 0, frame = 64
  30              		@ frame_needed = 0, uses_anonymous_args = 0
  31 0000 70B5     		push	{r4, r5, r6, lr}
  32              		.cfi_def_cfa_offset 16
  33              		.cfi_offset 4, -16
  34              		.cfi_offset 5, -12
  35              		.cfi_offset 6, -8
  36              		.cfi_offset 14, -4
  37 0002 90B0     		sub	sp, sp, #64
  38              		.cfi_def_cfa_offset 80
  39              	.LVL0:
  49:main.c        ****     CYBIT  first_enter = 0;
  50:main.c        ****     CYBIT test=0;
  51:main.c        ****     
  52:main.c        ****     CyGlobalIntEnable; /* Enable global interrupts. */
  40              		.loc 1 52 0
  41              	@ 52 "main.c" 1
  42 0004 62B6     		CPSIE   i
  43              	@ 0 "" 2
  53:main.c        **** 
  54:main.c        ****     uint16 count;
  55:main.c        ****     uint8 buffer[USBUART_BUFFER_SIZE];
  56:main.c        ****     
  57:main.c        **** 
  58:main.c        ****     uint8 state;
  59:main.c        ****     //char8 lineStr[LINE_STR_LENGTH];
  60:main.c        ****     
  61:main.c        ****     LCD_Start();
  44              		.loc 1 61 0
  45              		.thumb
  46 0006 FFF7FEFF 		bl	LCD_Start
  47              	.LVL1:
  62:main.c        **** 
  63:main.c        ****     VDAC8_1_Start();
  48              		.loc 1 63 0
  49 000a FFF7FEFF 		bl	VDAC8_1_Start
  50              	.LVL2:
  64:main.c        ****     Opamp_1_Start();
ARM GAS  C:\Users\kopusov.FT\AppData\Local\Temp\cctW827O.s 			page 3


  51              		.loc 1 64 0
  52 000e FFF7FEFF 		bl	Opamp_1_Start
  53              	.LVL3:
  65:main.c        ****     CyGlobalIntEnable;
  54              		.loc 1 65 0
  55              	@ 65 "main.c" 1
  56 0012 62B6     		CPSIE   i
  57              	@ 0 "" 2
  66:main.c        **** 
  67:main.c        ****     
  68:main.c        ****      /* Start USBFS operation with 5-V operation. */
  69:main.c        ****     USBUART_1_Start(USBFS_DEVICE, USBUART_1_5V_OPERATION);
  58              		.loc 1 69 0
  59              		.thumb
  60 0014 0020     		movs	r0, #0
  61 0016 0121     		movs	r1, #1
  62 0018 FFF7FEFF 		bl	USBUART_1_Start
  63              	.LVL4:
  70:main.c        ****     
  71:main.c        ****     #if MDIO_HOST_ENABLE    
  72:main.c        ****     MDIO_host_2_Init(); 	
  64              		.loc 1 72 0
  65 001c FFF7FEFF 		bl	MDIO_host_2_Init
  66              	.LVL5:
  73:main.c        ****     #endif
  74:main.c        ****     
  75:main.c        ****    /* Place your initialization/startup code here (e.g. MyInst_Start()) */
  76:main.c        ****     Clock_2_Enable();
  67              		.loc 1 76 0
  68 0020 FFF7FEFF 		bl	Clock_2_Start
  69              	.LVL6:
  77:main.c        ****     Clock_1_Enable();
  70              		.loc 1 77 0
  71 0024 FFF7FEFF 		bl	Clock_1_Start
  72              	.LVL7:
  78:main.c        ****     PWM_1_Start();
  73              		.loc 1 78 0
  74 0028 FFF7FEFF 		bl	PWM_1_Start
  75              	.LVL8:
  79:main.c        ****     PWM_2_Start();
  76              		.loc 1 79 0
  77 002c FFF7FEFF 		bl	PWM_2_Start
  78              	.LVL9:
  80:main.c        ****    LCD_PrintString("TEST");
  79              		.loc 1 80 0
  80 0030 2948     		ldr	r0, .L11
  81 0032 FFF7FEFF 		bl	LCD_PrintString
  82              	.LVL10:
  81:main.c        ****     LCD_Position(1u, 0u);
  83              		.loc 1 81 0
  84 0036 0120     		movs	r0, #1
  85 0038 0021     		movs	r1, #0
  86 003a FFF7FEFF 		bl	LCD_Position
  87              	.LVL11:
  82:main.c        ****     LCD_PrintString("MDIO host");
  88              		.loc 1 82 0
  89 003e 2748     		ldr	r0, .L11+4
ARM GAS  C:\Users\kopusov.FT\AppData\Local\Temp\cctW827O.s 			page 4


  90 0040 FFF7FEFF 		bl	LCD_PrintString
  91              	.LVL12:
  50:main.c        ****     
  92              		.loc 1 50 0
  93 0044 0024     		movs	r4, #0
  49:main.c        ****     CYBIT test=0;
  94              		.loc 1 49 0
  95 0046 2646     		mov	r6, r4
  96 0048 00E0     		b	.L4
  97              	.LVL13:
  98              	.L9:
  83:main.c        **** //   ISR_Start();
  84:main.c        ****     
  85:main.c        ****     for(;;)
  86:main.c        ****     {
  87:main.c        ****       //  CyDelay(2000);
  88:main.c        ****         /* Host can send double SET_INTERFACE request. */
  89:main.c        ****         if (0u != USBUART_1_IsConfigurationChanged())
  90:main.c        ****         {
  91:main.c        ****             /* Initialize IN endpoints when device is configured. */
  92:main.c        ****             if (0u != USBUART_1_GetConfiguration())
  93:main.c        ****             {
  94:main.c        ****                 /* Enumeration is done, enable OUT endpoint to receive data 
  95:main.c        ****                  * from host. */
  96:main.c        ****                 USBUART_1_CDC_Init();
  97:main.c        ****             }
  98:main.c        ****         }
  99:main.c        **** 
 100:main.c        ****         /* Service USB CDC when device is configured. */
 101:main.c        ****         if (0u != USBUART_1_GetConfiguration())
 102:main.c        ****         {
 103:main.c        ****             /* Check for input data from host. */
 104:main.c        ****             if (0u != USBUART_1_DataIsReady())
 105:main.c        ****             {
 106:main.c        ****                 /* Read received data and re-enable OUT endpoint. */
 107:main.c        ****                 count = USBUART_1_GetAll(buffer);
 108:main.c        **** 
 109:main.c        ****                 if (0u != count)
 110:main.c        ****                 {
 111:main.c        ****                     /* Wait until component is ready to send data to host. */
 112:main.c        ****                     while (0u == USBUART_1_CDCIsReady())
 113:main.c        ****                     {
 114:main.c        ****                     }
 115:main.c        ****                     
 116:main.c        ****                     /* Send data back to host. */
 117:main.c        ****                     USBUART_1_PutData(buffer, count);
 118:main.c        **** 
 119:main.c        ****                     /* Send address frame */
 120:main.c        **** MDIO_host_2_WriteDataC45( MDIO_host_2_C45_ADDR, MdioPhyAddr, MdioDevAddr, HostAddress );
 121:main.c        ****                        	/* Start Transmission */
 122:main.c        ****                     if(test)
 123:main.c        ****                     {
 124:main.c        ****  //  	MDIO_host_2_CONTROL_REG |= MDIO_host_2_START;
 125:main.c        ****                     }
 126:main.c        ****                     else
 127:main.c        ****                     {
 128:main.c        ****  //  MDIO_host_2_CONTROL_REG &= ~MDIO_host_2_START;
ARM GAS  C:\Users\kopusov.FT\AppData\Local\Temp\cctW827O.s 			page 5


 129:main.c        ****                     }
 130:main.c        ****                     test =~test;
 131:main.c        ****                     LED_3_Write(test);
 132:main.c        ****                     /* If the last sent packet is exactly the maximum packet 
 133:main.c        ****                     *  size, it is followed by a zero-length packet to assure
 134:main.c        ****                     *  that the end of the segment is properly identified by 
 135:main.c        ****                     *  the terminal.
 136:main.c        ****                     */
 137:main.c        ****                     if (USBUART_BUFFER_SIZE == count)
 138:main.c        ****                     {
 139:main.c        ****                         /* Wait until component is ready to send data to PC. */
 140:main.c        ****                         while (0u == USBUART_1_CDCIsReady())
 141:main.c        ****                         {
 142:main.c        ****                         }
 143:main.c        **** 
 144:main.c        ****                         /* Send zero-length packet to PC. */
 145:main.c        ****                         USBUART_1_PutData(NULL, 0u);
 146:main.c        ****                     }
 147:main.c        ****                 }
 148:main.c        ****             }
 149:main.c        **** 
 150:main.c        **** 
 151:main.c        ****             /* Check for Line settings change. */
 152:main.c        ****             state = USBUART_1_IsLineChanged();
 153:main.c        ****             if (0u != state)
 154:main.c        ****             {
 155:main.c        ****                 /* Output on LCD Line Coding settings. */
 156:main.c        ****                 if (0u != (state & USBUART_1_LINE_CODING_CHANGED))
 157:main.c        ****                 {                  
 158:main.c        ****                     /* Get string to output. */
 159:main.c        **** //                    sprintf(lineStr,"BR:%4ld %d%c%s", USBUART_1_GetDTERate(),\
 160:main.c        **** //                                   (uint16) USBUART_1_GetDataBits(),\
 161:main.c        **** //                                   parity[(uint16) USBUART_1_GetParityType()][0],\
 162:main.c        **** //                                   stop[(uint16) USBUART_1_GetCharFormat()]);
 163:main.c        **** 
 164:main.c        **** //                    /* Clear LCD line. */
 165:main.c        **** //                    LCD_Position(0u, 0u);
 166:main.c        **** //                    LCD_PrintString("                    ");
 167:main.c        **** //
 168:main.c        **** //                    /* Output string on LCD. */
 169:main.c        **** //                    LCD_Position(0u, 0u);
 170:main.c        **** //                    LCD_PrintString(lineStr);
 171:main.c        ****                 }
 172:main.c        **** 
 173:main.c        ****                 /* Output on LCD Line Control settings. */
 174:main.c        ****                 if (0u != (state & USBUART_1_LINE_CONTROL_CHANGED))
 175:main.c        ****                 {                   
 176:main.c        ****                     /* Get string to output. */
 177:main.c        ****                     state = USBUART_1_GetLineControl();
 178:main.c        ****                     
 179:main.c        ****                     if(0u != (state & USBUART_1_LINE_CONTROL_DTR))//connect terminal
 180:main.c        ****                     {
 181:main.c        ****                        if(!first_enter)
 182:main.c        ****                         {
 183:main.c        ****                           first_enter = 1;  
 184:main.c        ****                           USBUART_1_PutString("\r\nHello from Cypress!\r\n");
 185:main.c        ****                         } 
ARM GAS  C:\Users\kopusov.FT\AppData\Local\Temp\cctW827O.s 			page 6


 186:main.c        ****                     }
 187:main.c        ****                     else    //disconnect terminal
 188:main.c        ****                     {
 189:main.c        ****                         first_enter = 0;
  99              		.loc 1 189 0
 100 004a 0026     		movs	r6, #0
 101              	.LVL14:
 102              	.L4:
  89:main.c        ****         {
 103              		.loc 1 89 0
 104 004c FFF7FEFF 		bl	USBUART_1_IsConfigurationChanged
 105              	.LVL15:
 106 0050 20B1     		cbz	r0, .L3
  92:main.c        ****             {
 107              		.loc 1 92 0
 108 0052 FFF7FEFF 		bl	USBUART_1_GetConfiguration
 109              	.LVL16:
 110 0056 08B1     		cbz	r0, .L3
  96:main.c        ****             }
 111              		.loc 1 96 0
 112 0058 FFF7FEFF 		bl	USBUART_1_CDC_Init
 113              	.LVL17:
 114              	.L3:
 101:main.c        ****         {
 115              		.loc 1 101 0
 116 005c FFF7FEFF 		bl	USBUART_1_GetConfiguration
 117              	.LVL18:
 118 0060 0028     		cmp	r0, #0
 119 0062 F3D0     		beq	.L4
 104:main.c        ****             {
 120              		.loc 1 104 0
 121 0064 FFF7FEFF 		bl	USBUART_1_DataIsReady
 122              	.LVL19:
 123 0068 10B3     		cbz	r0, .L5
 107:main.c        **** 
 124              		.loc 1 107 0
 125 006a 6846     		mov	r0, sp
 126 006c FFF7FEFF 		bl	USBUART_1_GetAll
 127              	.LVL20:
 109:main.c        ****                 {
 128              		.loc 1 109 0
 129 0070 0546     		mov	r5, r0
 130 0072 E8B1     		cbz	r0, .L5
 131              	.LVL21:
 132              	.L6:
 112:main.c        ****                     {
 133              		.loc 1 112 0 discriminator 1
 134 0074 FFF7FEFF 		bl	USBUART_1_CDCIsReady
 135              	.LVL22:
 136 0078 0028     		cmp	r0, #0
 137 007a FBD0     		beq	.L6
 117:main.c        **** 
 138              		.loc 1 117 0
 139 007c 6846     		mov	r0, sp
 140 007e 2946     		mov	r1, r5
 141 0080 FFF7FEFF 		bl	USBUART_1_PutData
 142              	.LVL23:
ARM GAS  C:\Users\kopusov.FT\AppData\Local\Temp\cctW827O.s 			page 7


 120:main.c        ****                        	/* Start Transmission */
 143              		.loc 1 120 0
 144 0084 0020     		movs	r0, #0
 145 0086 1F21     		movs	r1, #31
 146 0088 0122     		movs	r2, #1
 147 008a 154B     		ldr	r3, .L11+8
 148 008c 1B88     		ldrh	r3, [r3]
 149 008e FFF7FEFF 		bl	MDIO_host_2_WriteDataC45
 150              	.LVL24:
 130:main.c        ****                     LED_3_Write(test);
 151              		.loc 1 130 0
 152 0092 E443     		mvns	r4, r4
 153              	.LVL25:
 154 0094 E4B2     		uxtb	r4, r4
 155              	.LVL26:
 131:main.c        ****                     /* If the last sent packet is exactly the maximum packet 
 156              		.loc 1 131 0
 157 0096 2046     		mov	r0, r4
 158 0098 FFF7FEFF 		bl	LED_3_Write
 159              	.LVL27:
 137:main.c        ****                     {
 160              		.loc 1 137 0
 161 009c 402D     		cmp	r5, #64
 162 009e 07D1     		bne	.L5
 163              	.L7:
 140:main.c        ****                         {
 164              		.loc 1 140 0 discriminator 1
 165 00a0 FFF7FEFF 		bl	USBUART_1_CDCIsReady
 166              	.LVL28:
 167 00a4 0028     		cmp	r0, #0
 168 00a6 FBD0     		beq	.L7
 145:main.c        ****                     }
 169              		.loc 1 145 0
 170 00a8 0020     		movs	r0, #0
 171 00aa 0146     		mov	r1, r0
 172 00ac FFF7FEFF 		bl	USBUART_1_PutData
 173              	.LVL29:
 174              	.L5:
 152:main.c        ****             if (0u != state)
 175              		.loc 1 152 0
 176 00b0 FFF7FEFF 		bl	USBUART_1_IsLineChanged
 177              	.LVL30:
 153:main.c        ****             {
 178              		.loc 1 153 0
 179 00b4 0028     		cmp	r0, #0
 180 00b6 C9D0     		beq	.L4
 174:main.c        ****                 {                   
 181              		.loc 1 174 0
 182 00b8 10F0020F 		tst	r0, #2
 183 00bc C6D0     		beq	.L4
 177:main.c        ****                     
 184              		.loc 1 177 0
 185 00be FFF7FEFF 		bl	USBUART_1_GetLineControl
 186              	.LVL31:
 179:main.c        ****                     {
 187              		.loc 1 179 0
 188 00c2 10F0010F 		tst	r0, #1
ARM GAS  C:\Users\kopusov.FT\AppData\Local\Temp\cctW827O.s 			page 8


 189 00c6 C0D0     		beq	.L9
 181:main.c        ****                         {
 190              		.loc 1 181 0
 191 00c8 002E     		cmp	r6, #0
 192 00ca BFD1     		bne	.L4
 193              	.LVL32:
 184:main.c        ****                         } 
 194              		.loc 1 184 0
 195 00cc 0548     		ldr	r0, .L11+12
 196              	.LVL33:
 197 00ce FFF7FEFF 		bl	USBUART_1_PutString
 198              	.LVL34:
 183:main.c        ****                           USBUART_1_PutString("\r\nHello from Cypress!\r\n");
 199              		.loc 1 183 0
 200 00d2 0126     		movs	r6, #1
 201 00d4 BAE7     		b	.L4
 202              	.L12:
 203 00d6 00BF     		.align	2
 204              	.L11:
 205 00d8 00000000 		.word	.LC0
 206 00dc 08000000 		.word	.LC1
 207 00e0 00000000 		.word	.LANCHOR0
 208 00e4 14000000 		.word	.LC2
 209              		.cfi_endproc
 210              	.LFE63:
 211              		.size	main, .-main
 212              		.global	HostData
 213              		.global	HostAddress
 214              		.data
 215              		.align	1
 216              		.set	.LANCHOR0,. + 0
 217              		.type	HostAddress, %object
 218              		.size	HostAddress, 2
 219              	HostAddress:
 220 0000 0080     		.short	-32768
 221              		.section	.rodata.str1.4,"aMS",%progbits,1
 222              		.align	2
 223              	.LC0:
 224 0000 54455354 		.ascii	"TEST\000"
 224      00
 225 0005 000000   		.space	3
 226              	.LC1:
 227 0008 4D44494F 		.ascii	"MDIO host\000"
 227      20686F73 
 227      7400
 228 0012 0000     		.space	2
 229              	.LC2:
 230 0014 0D0A4865 		.ascii	"\015\012Hello from Cypress!\015\012\000"
 230      6C6C6F20 
 230      66726F6D 
 230      20437970 
 230      72657373 
 231              		.bss
 232              		.align	1
 233              		.type	HostData, %object
 234              		.size	HostData, 2
 235              	HostData:
ARM GAS  C:\Users\kopusov.FT\AppData\Local\Temp\cctW827O.s 			page 9


 236 0000 0000     		.space	2
 237              		.text
 238              	.Letext0:
 239              		.file 2 "c:\\program files (x86)\\cypress\\psoc creator\\4.0\\psoc creator\\import\\gnu\\arm\\4.9.
 240              		.file 3 "c:\\program files (x86)\\cypress\\psoc creator\\4.0\\psoc creator\\import\\gnu\\arm\\4.9.
 241              		.file 4 "Generated_Source\\PSoC5/cytypes.h"
 242              		.file 5 "Generated_Source\\PSoC5/core_cm3.h"
 243              		.file 6 "Generated_Source\\PSoC5/LCD.h"
 244              		.file 7 "Generated_Source\\PSoC5/VDAC8_1.h"
 245              		.file 8 "Generated_Source\\PSoC5/Opamp_1.h"
 246              		.file 9 "Generated_Source\\PSoC5/MDIO_host_2_my.h"
 247              		.file 10 "Generated_Source\\PSoC5/Clock_2.h"
 248              		.file 11 "Generated_Source\\PSoC5/Clock_1.h"
 249              		.file 12 "Generated_Source\\PSoC5/PWM_1.h"
 250              		.file 13 "Generated_Source\\PSoC5/PWM_2.h"
 251              		.file 14 "Generated_Source\\PSoC5/USBUART_1.h"
 252              		.file 15 "Generated_Source\\PSoC5/USBUART_1_cdc.h"
 253              		.file 16 "Generated_Source\\PSoC5/LED_3.h"