ARM GAS  C:\Users\kopusov.FT\AppData\Local\Temp\ccYZzYXp.s 			page 1


   1              		.syntax unified
   2              		.cpu cortex-m3
   3              		.fpu softvfp
   4              		.eabi_attribute 20, 1
   5              		.eabi_attribute 21, 1
   6              		.eabi_attribute 23, 3
   7              		.eabi_attribute 24, 1
   8              		.eabi_attribute 25, 1
   9              		.eabi_attribute 26, 1
  10              		.eabi_attribute 30, 1
  11              		.eabi_attribute 34, 1
  12              		.eabi_attribute 18, 4
  13              		.thumb
  14              		.file	"MDIO_host_2_my.c"
  15              		.text
  16              	.Ltext0:
  17              		.cfi_sections	.debug_frame
  18              		.section	.text.MDIO_host_2_Stop,"ax",%progbits
  19              		.align	2
  20              		.global	MDIO_host_2_Stop
  21              		.thumb
  22              		.thumb_func
  23              		.type	MDIO_host_2_Stop, %function
  24              	MDIO_host_2_Stop:
  25              	.LFB64:
  26              		.file 1 "Generated_Source\\PSoC5\\MDIO_host_2_my.c"
   1:Generated_Source\PSoC5/MDIO_host_2_my.c **** /* ========================================
   2:Generated_Source\PSoC5/MDIO_host_2_my.c ****  *
   3:Generated_Source\PSoC5/MDIO_host_2_my.c ****  * Copyright FiberTreid, 2017
   4:Generated_Source\PSoC5/MDIO_host_2_my.c ****  * All Rights Reserved
   5:Generated_Source\PSoC5/MDIO_host_2_my.c ****  * UNPUBLISHED, LICENSED SOFTWARE.
   6:Generated_Source\PSoC5/MDIO_host_2_my.c ****  *
   7:Generated_Source\PSoC5/MDIO_host_2_my.c ****  * CONFIDENTIAL AND PROPRIETARY INFORMATION
   8:Generated_Source\PSoC5/MDIO_host_2_my.c ****  * WHICH IS THE PROPERTY OF your company.
   9:Generated_Source\PSoC5/MDIO_host_2_my.c ****  *
  10:Generated_Source\PSoC5/MDIO_host_2_my.c ****  * ========================================
  11:Generated_Source\PSoC5/MDIO_host_2_my.c **** */
  12:Generated_Source\PSoC5/MDIO_host_2_my.c **** 
  13:Generated_Source\PSoC5/MDIO_host_2_my.c **** //#include <device.h>
  14:Generated_Source\PSoC5/MDIO_host_2_my.c **** #include <project.h>
  15:Generated_Source\PSoC5/MDIO_host_2_my.c **** #include "cytypes.h"
  16:Generated_Source\PSoC5/MDIO_host_2_my.c **** #include "cyfitter.h"
  17:Generated_Source\PSoC5/MDIO_host_2_my.c **** #include "cypins.h"
  18:Generated_Source\PSoC5/MDIO_host_2_my.c **** #include "MDIO_host_2_my.h"
  19:Generated_Source\PSoC5/MDIO_host_2_my.c **** 
  20:Generated_Source\PSoC5/MDIO_host_2_my.c **** /*******************************************************************************
  21:Generated_Source\PSoC5/MDIO_host_2_my.c **** * Variables
  22:Generated_Source\PSoC5/MDIO_host_2_my.c **** ********************************************************************************/
  23:Generated_Source\PSoC5/MDIO_host_2_my.c **** uint8 MDIO_host_2_initVar = 0u;
  24:Generated_Source\PSoC5/MDIO_host_2_my.c **** 
  25:Generated_Source\PSoC5/MDIO_host_2_my.c **** /* Data received MDIO Host */
  26:Generated_Source\PSoC5/MDIO_host_2_my.c **** volatile uint16 MDIO_host_2_data_bits=0u;	 
  27:Generated_Source\PSoC5/MDIO_host_2_my.c **** 
  28:Generated_Source\PSoC5/MDIO_host_2_my.c **** /* Internal Status Register */
  29:Generated_Source\PSoC5/MDIO_host_2_my.c **** volatile uint8  MDIO_host_2_StatusRegister=0u;
  30:Generated_Source\PSoC5/MDIO_host_2_my.c **** 
  31:Generated_Source\PSoC5/MDIO_host_2_my.c **** /*******************************************************************************
ARM GAS  C:\Users\kopusov.FT\AppData\Local\Temp\ccYZzYXp.s 			page 2


  32:Generated_Source\PSoC5/MDIO_host_2_my.c **** * Function Name: MDIO_host_2_Start
  33:Generated_Source\PSoC5/MDIO_host_2_my.c **** ********************************************************************************
  34:Generated_Source\PSoC5/MDIO_host_2_my.c **** * Summary:
  35:Generated_Source\PSoC5/MDIO_host_2_my.c **** *  Initializes the MDIO Host component.
  36:Generated_Source\PSoC5/MDIO_host_2_my.c **** * 
  37:Generated_Source\PSoC5/MDIO_host_2_my.c **** * Parameters:
  38:Generated_Source\PSoC5/MDIO_host_2_my.c **** *  None
  39:Generated_Source\PSoC5/MDIO_host_2_my.c **** *
  40:Generated_Source\PSoC5/MDIO_host_2_my.c **** * Return:
  41:Generated_Source\PSoC5/MDIO_host_2_my.c **** *  None
  42:Generated_Source\PSoC5/MDIO_host_2_my.c **** * 
  43:Generated_Source\PSoC5/MDIO_host_2_my.c **** * Side Effects:
  44:Generated_Source\PSoC5/MDIO_host_2_my.c **** *
  45:Generated_Source\PSoC5/MDIO_host_2_my.c **** ********************************************************************************/
  46:Generated_Source\PSoC5/MDIO_host_2_my.c **** void MDIO_host_2_Start(void)
  47:Generated_Source\PSoC5/MDIO_host_2_my.c **** { 
  48:Generated_Source\PSoC5/MDIO_host_2_my.c ****     /* If not already initialized, then initialize hardware and software */
  49:Generated_Source\PSoC5/MDIO_host_2_my.c ****     if(MDIO_host_2_initVar == 0u)
  50:Generated_Source\PSoC5/MDIO_host_2_my.c ****     {
  51:Generated_Source\PSoC5/MDIO_host_2_my.c ****         MDIO_host_2_Init();
  52:Generated_Source\PSoC5/MDIO_host_2_my.c ****         MDIO_host_2_initVar = 1u;
  53:Generated_Source\PSoC5/MDIO_host_2_my.c ****     }
  54:Generated_Source\PSoC5/MDIO_host_2_my.c ****     MDIO_host_2_Enable();
  55:Generated_Source\PSoC5/MDIO_host_2_my.c **** }
  56:Generated_Source\PSoC5/MDIO_host_2_my.c **** 
  57:Generated_Source\PSoC5/MDIO_host_2_my.c **** /*******************************************************************************
  58:Generated_Source\PSoC5/MDIO_host_2_my.c **** * Function Name: MDIO_host_2_Stop
  59:Generated_Source\PSoC5/MDIO_host_2_my.c **** ********************************************************************************
  60:Generated_Source\PSoC5/MDIO_host_2_my.c **** * Summary:
  61:Generated_Source\PSoC5/MDIO_host_2_my.c **** *  Disable the MDIO Host component and the internal interrupt
  62:Generated_Source\PSoC5/MDIO_host_2_my.c **** * 
  63:Generated_Source\PSoC5/MDIO_host_2_my.c **** * Parameters:
  64:Generated_Source\PSoC5/MDIO_host_2_my.c **** *  None
  65:Generated_Source\PSoC5/MDIO_host_2_my.c **** * 
  66:Generated_Source\PSoC5/MDIO_host_2_my.c **** * Return:
  67:Generated_Source\PSoC5/MDIO_host_2_my.c **** *  None
  68:Generated_Source\PSoC5/MDIO_host_2_my.c **** * 
  69:Generated_Source\PSoC5/MDIO_host_2_my.c **** * Side Effects:
  70:Generated_Source\PSoC5/MDIO_host_2_my.c **** *  
  71:Generated_Source\PSoC5/MDIO_host_2_my.c **** ********************************************************************************/
  72:Generated_Source\PSoC5/MDIO_host_2_my.c **** void MDIO_host_2_Stop(void)
  73:Generated_Source\PSoC5/MDIO_host_2_my.c **** {
  27              		.loc 1 73 0
  28              		.cfi_startproc
  29              		@ args = 0, pretend = 0, frame = 0
  30              		@ frame_needed = 0, uses_anonymous_args = 0
  31              		@ link register save eliminated.
  74:Generated_Source\PSoC5/MDIO_host_2_my.c **** 	/* Disable the hardware component */
  75:Generated_Source\PSoC5/MDIO_host_2_my.c ****  //   MDIO_host_2_CONTROL_REG = 0u;	// Set Enable and Valid bits to zero
  76:Generated_Source\PSoC5/MDIO_host_2_my.c **** 	
  77:Generated_Source\PSoC5/MDIO_host_2_my.c **** 	/* Disable Count7 hardware block */
  78:Generated_Source\PSoC5/MDIO_host_2_my.c ****     MDIO_host_2_CNT7_AUX_CTL_REG &= ~MDIO_host_2_COUNT7_EN;
  32              		.loc 1 78 0
  33 0000 024A     		ldr	r2, .L2
  34 0002 1378     		ldrb	r3, [r2]	@ zero_extendqisi2
  35 0004 03F0DF03 		and	r3, r3, #223
  36 0008 1370     		strb	r3, [r2]
ARM GAS  C:\Users\kopusov.FT\AppData\Local\Temp\ccYZzYXp.s 			page 3


  37 000a 7047     		bx	lr
  38              	.L3:
  39              		.align	2
  40              	.L2:
  41 000c 92640040 		.word	1073767570
  42              		.cfi_endproc
  43              	.LFE64:
  44              		.size	MDIO_host_2_Stop, .-MDIO_host_2_Stop
  45              		.section	.text.MDIO_host_2_Enable,"ax",%progbits
  46              		.align	2
  47              		.global	MDIO_host_2_Enable
  48              		.thumb
  49              		.thumb_func
  50              		.type	MDIO_host_2_Enable, %function
  51              	MDIO_host_2_Enable:
  52              	.LFB66:
  79:Generated_Source\PSoC5/MDIO_host_2_my.c **** 	
  80:Generated_Source\PSoC5/MDIO_host_2_my.c **** 	/* Disable Interrupt */
  81:Generated_Source\PSoC5/MDIO_host_2_my.c **** //	MDIO_host_2_DisableInt();
  82:Generated_Source\PSoC5/MDIO_host_2_my.c **** }
  83:Generated_Source\PSoC5/MDIO_host_2_my.c **** 
  84:Generated_Source\PSoC5/MDIO_host_2_my.c **** /*******************************************************************************
  85:Generated_Source\PSoC5/MDIO_host_2_my.c **** * Function Name: MDIO_host_2_Init
  86:Generated_Source\PSoC5/MDIO_host_2_my.c **** ********************************************************************************
  87:Generated_Source\PSoC5/MDIO_host_2_my.c **** * Summary:
  88:Generated_Source\PSoC5/MDIO_host_2_my.c **** *  Initializes internal variables and resets the datapath FIFO.
  89:Generated_Source\PSoC5/MDIO_host_2_my.c **** * 
  90:Generated_Source\PSoC5/MDIO_host_2_my.c **** * Parameters:
  91:Generated_Source\PSoC5/MDIO_host_2_my.c **** *  None
  92:Generated_Source\PSoC5/MDIO_host_2_my.c **** *
  93:Generated_Source\PSoC5/MDIO_host_2_my.c **** * Return:
  94:Generated_Source\PSoC5/MDIO_host_2_my.c **** *  None
  95:Generated_Source\PSoC5/MDIO_host_2_my.c **** * 
  96:Generated_Source\PSoC5/MDIO_host_2_my.c **** * Side Effects:
  97:Generated_Source\PSoC5/MDIO_host_2_my.c **** *  
  98:Generated_Source\PSoC5/MDIO_host_2_my.c **** ********************************************************************************/
  99:Generated_Source\PSoC5/MDIO_host_2_my.c **** void MDIO_host_2_Init(void)
 100:Generated_Source\PSoC5/MDIO_host_2_my.c **** { 	
 101:Generated_Source\PSoC5/MDIO_host_2_my.c ****     MDIO_host_2_Enable();
 102:Generated_Source\PSoC5/MDIO_host_2_my.c **** 	
 103:Generated_Source\PSoC5/MDIO_host_2_my.c **** 	/* Reset Internal FIFOs */
 104:Generated_Source\PSoC5/MDIO_host_2_my.c **** 	MDIO_host_2_ClearInternalFIFOs();
 105:Generated_Source\PSoC5/MDIO_host_2_my.c **** 
 106:Generated_Source\PSoC5/MDIO_host_2_my.c ****     /* Initialize interrupts */
 107:Generated_Source\PSoC5/MDIO_host_2_my.c **** //	MDIO_host_2_EnableInt();
 108:Generated_Source\PSoC5/MDIO_host_2_my.c **** }
 109:Generated_Source\PSoC5/MDIO_host_2_my.c **** 
 110:Generated_Source\PSoC5/MDIO_host_2_my.c **** /*******************************************************************************
 111:Generated_Source\PSoC5/MDIO_host_2_my.c **** * Function Name: MDIO_host_2_Enable()
 112:Generated_Source\PSoC5/MDIO_host_2_my.c **** ********************************************************************************
 113:Generated_Source\PSoC5/MDIO_host_2_my.c **** * Summary:
 114:Generated_Source\PSoC5/MDIO_host_2_my.c **** *  Enables the hardware and internal interrupt.
 115:Generated_Source\PSoC5/MDIO_host_2_my.c **** * 
 116:Generated_Source\PSoC5/MDIO_host_2_my.c **** * Parameters:
 117:Generated_Source\PSoC5/MDIO_host_2_my.c **** *  None
 118:Generated_Source\PSoC5/MDIO_host_2_my.c **** *
 119:Generated_Source\PSoC5/MDIO_host_2_my.c **** * Return:
ARM GAS  C:\Users\kopusov.FT\AppData\Local\Temp\ccYZzYXp.s 			page 4


 120:Generated_Source\PSoC5/MDIO_host_2_my.c **** *  None
 121:Generated_Source\PSoC5/MDIO_host_2_my.c **** * 
 122:Generated_Source\PSoC5/MDIO_host_2_my.c **** * Side Effects:
 123:Generated_Source\PSoC5/MDIO_host_2_my.c **** *  None
 124:Generated_Source\PSoC5/MDIO_host_2_my.c **** ********************************************************************************/
 125:Generated_Source\PSoC5/MDIO_host_2_my.c **** void MDIO_host_2_Enable(void) 
 126:Generated_Source\PSoC5/MDIO_host_2_my.c **** {
  53              		.loc 1 126 0
  54              		.cfi_startproc
  55              		@ args = 0, pretend = 0, frame = 0
  56              		@ frame_needed = 0, uses_anonymous_args = 0
  57              		@ link register save eliminated.
 127:Generated_Source\PSoC5/MDIO_host_2_my.c **** 	/* Enable Count7 hardware block */
 128:Generated_Source\PSoC5/MDIO_host_2_my.c ****     MDIO_host_2_CNT7_AUX_CTL_REG |= MDIO_host_2_COUNT7_EN;
  58              		.loc 1 128 0
  59 0000 044A     		ldr	r2, .L5
  60 0002 1378     		ldrb	r3, [r2]	@ zero_extendqisi2
  61 0004 43F02003 		orr	r3, r3, #32
  62 0008 1370     		strb	r3, [r2]
 129:Generated_Source\PSoC5/MDIO_host_2_my.c **** 
 130:Generated_Source\PSoC5/MDIO_host_2_my.c **** 	/* Enable the block */
 131:Generated_Source\PSoC5/MDIO_host_2_my.c ****     //  MDIO_host_2_CONTROL_REG = MDIO_host_2_ENABLE;
 132:Generated_Source\PSoC5/MDIO_host_2_my.c **** 	
 133:Generated_Source\PSoC5/MDIO_host_2_my.c ****     /*Reset counter */
 134:Generated_Source\PSoC5/MDIO_host_2_my.c ****     // MDIO_host_2_PERIOD_REG = 127;
 135:Generated_Source\PSoC5/MDIO_host_2_my.c ****     MDIO_host_2_COUNT_REG = 61;
  63              		.loc 1 135 0
  64 000a 3D22     		movs	r2, #61
  65 000c 024B     		ldr	r3, .L5+4
  66 000e 1A70     		strb	r2, [r3]
  67 0010 7047     		bx	lr
  68              	.L6:
  69 0012 00BF     		.align	2
  70              	.L5:
  71 0014 92640040 		.word	1073767570
  72 0018 72640040 		.word	1073767538
  73              		.cfi_endproc
  74              	.LFE66:
  75              		.size	MDIO_host_2_Enable, .-MDIO_host_2_Enable
  76              		.section	.text.MDIO_host_2_GetStatus,"ax",%progbits
  77              		.align	2
  78              		.global	MDIO_host_2_GetStatus
  79              		.thumb
  80              		.thumb_func
  81              		.type	MDIO_host_2_GetStatus, %function
  82              	MDIO_host_2_GetStatus:
  83              	.LFB67:
 136:Generated_Source\PSoC5/MDIO_host_2_my.c ****     
 137:Generated_Source\PSoC5/MDIO_host_2_my.c **** 	/* Enable the interrupt */
 138:Generated_Source\PSoC5/MDIO_host_2_my.c **** 	//CyIntEnable(MDIO_host_2_ISR_NUMBER);   
 139:Generated_Source\PSoC5/MDIO_host_2_my.c **** }
 140:Generated_Source\PSoC5/MDIO_host_2_my.c **** 
 141:Generated_Source\PSoC5/MDIO_host_2_my.c **** /*******************************************************************************
 142:Generated_Source\PSoC5/MDIO_host_2_my.c **** * Function Name: MDIO_host_2_EnableInt
 143:Generated_Source\PSoC5/MDIO_host_2_my.c **** ********************************************************************************
 144:Generated_Source\PSoC5/MDIO_host_2_my.c **** * Summary:
 145:Generated_Source\PSoC5/MDIO_host_2_my.c **** *  Enables and configure the interrupt from this component. 
ARM GAS  C:\Users\kopusov.FT\AppData\Local\Temp\ccYZzYXp.s 			page 5


 146:Generated_Source\PSoC5/MDIO_host_2_my.c **** * 
 147:Generated_Source\PSoC5/MDIO_host_2_my.c **** * Parameters:
 148:Generated_Source\PSoC5/MDIO_host_2_my.c **** *  None
 149:Generated_Source\PSoC5/MDIO_host_2_my.c **** * 
 150:Generated_Source\PSoC5/MDIO_host_2_my.c **** * Return:
 151:Generated_Source\PSoC5/MDIO_host_2_my.c **** *  None
 152:Generated_Source\PSoC5/MDIO_host_2_my.c **** * 
 153:Generated_Source\PSoC5/MDIO_host_2_my.c **** * Side Effects:
 154:Generated_Source\PSoC5/MDIO_host_2_my.c **** *  None
 155:Generated_Source\PSoC5/MDIO_host_2_my.c **** ********************************************************************************/
 156:Generated_Source\PSoC5/MDIO_host_2_my.c **** //void MDIO_host_2_EnableInt(void)
 157:Generated_Source\PSoC5/MDIO_host_2_my.c **** //{   
 158:Generated_Source\PSoC5/MDIO_host_2_my.c **** //    /* Enable interrupt handler service routine */
 159:Generated_Source\PSoC5/MDIO_host_2_my.c **** //	CyIntDisable(MDIO_host_2_ISR_NUMBER);
 160:Generated_Source\PSoC5/MDIO_host_2_my.c **** //	CyIntSetVector(MDIO_host_2_ISR_NUMBER, MDIO_host_2_ISR_InterruptHandler);
 161:Generated_Source\PSoC5/MDIO_host_2_my.c **** //	CyIntSetPriority(MDIO_host_2_ISR_NUMBER, MDIO_host_2_ISR_PRIORITY);
 162:Generated_Source\PSoC5/MDIO_host_2_my.c **** //	CyIntEnable(MDIO_host_2_ISR_NUMBER);        
 163:Generated_Source\PSoC5/MDIO_host_2_my.c **** //}
 164:Generated_Source\PSoC5/MDIO_host_2_my.c **** 
 165:Generated_Source\PSoC5/MDIO_host_2_my.c **** /*******************************************************************************
 166:Generated_Source\PSoC5/MDIO_host_2_my.c **** * Function Name: MDIO_host_2_DisableInt
 167:Generated_Source\PSoC5/MDIO_host_2_my.c **** ********************************************************************************
 168:Generated_Source\PSoC5/MDIO_host_2_my.c **** * Summary:
 169:Generated_Source\PSoC5/MDIO_host_2_my.c **** *  Disables interrupts from this component
 170:Generated_Source\PSoC5/MDIO_host_2_my.c **** *
 171:Generated_Source\PSoC5/MDIO_host_2_my.c **** * Parameters:
 172:Generated_Source\PSoC5/MDIO_host_2_my.c **** *  None
 173:Generated_Source\PSoC5/MDIO_host_2_my.c **** * 
 174:Generated_Source\PSoC5/MDIO_host_2_my.c **** * Return:
 175:Generated_Source\PSoC5/MDIO_host_2_my.c **** *  None
 176:Generated_Source\PSoC5/MDIO_host_2_my.c **** * 
 177:Generated_Source\PSoC5/MDIO_host_2_my.c **** * Side Effects:
 178:Generated_Source\PSoC5/MDIO_host_2_my.c **** *  None
 179:Generated_Source\PSoC5/MDIO_host_2_my.c **** ********************************************************************************/
 180:Generated_Source\PSoC5/MDIO_host_2_my.c **** //void MDIO_host_2_DisableInt(void)
 181:Generated_Source\PSoC5/MDIO_host_2_my.c **** //{  
 182:Generated_Source\PSoC5/MDIO_host_2_my.c **** //    /* Disable interrupt handler service routine */
 183:Generated_Source\PSoC5/MDIO_host_2_my.c **** //	CyIntDisable(MDIO_host_2_ISR_NUMBER);
 184:Generated_Source\PSoC5/MDIO_host_2_my.c **** //}
 185:Generated_Source\PSoC5/MDIO_host_2_my.c **** 
 186:Generated_Source\PSoC5/MDIO_host_2_my.c **** /*******************************************************************************
 187:Generated_Source\PSoC5/MDIO_host_2_my.c **** * Function Name: MDIO_host_2_GetStatus
 188:Generated_Source\PSoC5/MDIO_host_2_my.c **** ********************************************************************************
 189:Generated_Source\PSoC5/MDIO_host_2_my.c **** * Summary:
 190:Generated_Source\PSoC5/MDIO_host_2_my.c **** *  Returns the internal status of the hardware.
 191:Generated_Source\PSoC5/MDIO_host_2_my.c **** *
 192:Generated_Source\PSoC5/MDIO_host_2_my.c **** * Parameters:
 193:Generated_Source\PSoC5/MDIO_host_2_my.c **** *  None
 194:Generated_Source\PSoC5/MDIO_host_2_my.c **** * 
 195:Generated_Source\PSoC5/MDIO_host_2_my.c **** * Return:
 196:Generated_Source\PSoC5/MDIO_host_2_my.c **** *  uint8
 197:Generated_Source\PSoC5/MDIO_host_2_my.c **** *		b0   = Set when component is busy 
 198:Generated_Source\PSoC5/MDIO_host_2_my.c **** *		b1 	 = Set when PHY address matches in the right timing 
 199:Generated_Source\PSoC5/MDIO_host_2_my.c **** *		b7:2 = Reserved. Returns all zeros
 200:Generated_Source\PSoC5/MDIO_host_2_my.c **** *
 201:Generated_Source\PSoC5/MDIO_host_2_my.c **** * Side Effects:
 202:Generated_Source\PSoC5/MDIO_host_2_my.c **** *  None
ARM GAS  C:\Users\kopusov.FT\AppData\Local\Temp\ccYZzYXp.s 			page 6


 203:Generated_Source\PSoC5/MDIO_host_2_my.c **** ********************************************************************************/
 204:Generated_Source\PSoC5/MDIO_host_2_my.c **** uint8 MDIO_host_2_GetStatus(void) CYREENTRANT
 205:Generated_Source\PSoC5/MDIO_host_2_my.c **** {
  84              		.loc 1 205 0
  85              		.cfi_startproc
  86              		@ args = 0, pretend = 0, frame = 0
  87              		@ frame_needed = 0, uses_anonymous_args = 0
  88              		@ link register save eliminated.
 206:Generated_Source\PSoC5/MDIO_host_2_my.c **** 	return MDIO_host_2_StatusRegister;
  89              		.loc 1 206 0
  90 0000 014B     		ldr	r3, .L8
  91 0002 1878     		ldrb	r0, [r3]	@ zero_extendqisi2
 207:Generated_Source\PSoC5/MDIO_host_2_my.c **** }
  92              		.loc 1 207 0
  93 0004 7047     		bx	lr
  94              	.L9:
  95 0006 00BF     		.align	2
  96              	.L8:
  97 0008 00000000 		.word	.LANCHOR0
  98              		.cfi_endproc
  99              	.LFE67:
 100              		.size	MDIO_host_2_GetStatus, .-MDIO_host_2_GetStatus
 101              		.section	.text.MDIO_host_2_ClearInternalFIFOs,"ax",%progbits
 102              		.align	2
 103              		.global	MDIO_host_2_ClearInternalFIFOs
 104              		.thumb
 105              		.thumb_func
 106              		.type	MDIO_host_2_ClearInternalFIFOs, %function
 107              	MDIO_host_2_ClearInternalFIFOs:
 108              	.LFB68:
 208:Generated_Source\PSoC5/MDIO_host_2_my.c **** 
 209:Generated_Source\PSoC5/MDIO_host_2_my.c **** /*******************************************************************************
 210:Generated_Source\PSoC5/MDIO_host_2_my.c **** * Function Name: MDIO_host_2_ClearInternalFIFOs
 211:Generated_Source\PSoC5/MDIO_host_2_my.c **** ********************************************************************************
 212:Generated_Source\PSoC5/MDIO_host_2_my.c **** * Summary:
 213:Generated_Source\PSoC5/MDIO_host_2_my.c **** *  Clear the internal FIFOs from the data path 
 214:Generated_Source\PSoC5/MDIO_host_2_my.c **** *
 215:Generated_Source\PSoC5/MDIO_host_2_my.c **** * Parameters:
 216:Generated_Source\PSoC5/MDIO_host_2_my.c **** *  dataPtr: Pointer to the data buffer
 217:Generated_Source\PSoC5/MDIO_host_2_my.c **** * 
 218:Generated_Source\PSoC5/MDIO_host_2_my.c **** * Return:
 219:Generated_Source\PSoC5/MDIO_host_2_my.c **** *  None
 220:Generated_Source\PSoC5/MDIO_host_2_my.c **** *
 221:Generated_Source\PSoC5/MDIO_host_2_my.c **** * Side Effects:
 222:Generated_Source\PSoC5/MDIO_host_2_my.c **** *  The size of this buffer should be at least 32 x 16 bits (64 bytes), otherwise
 223:Generated_Source\PSoC5/MDIO_host_2_my.c **** *  memory violation may occurs.
 224:Generated_Source\PSoC5/MDIO_host_2_my.c **** *
 225:Generated_Source\PSoC5/MDIO_host_2_my.c **** ********************************************************************************/
 226:Generated_Source\PSoC5/MDIO_host_2_my.c **** void MDIO_host_2_ClearInternalFIFOs(void)
 227:Generated_Source\PSoC5/MDIO_host_2_my.c **** {
 109              		.loc 1 227 0
 110              		.cfi_startproc
 111              		@ args = 0, pretend = 0, frame = 0
 112              		@ frame_needed = 0, uses_anonymous_args = 0
 113              		@ link register save eliminated.
 228:Generated_Source\PSoC5/MDIO_host_2_my.c **** 	/* Reset F0 FIFO  */
 229:Generated_Source\PSoC5/MDIO_host_2_my.c **** 	CY_SET_REG16(MDIO_host_2_DP_AUX_CTL_PTR, (CY_GET_REG16(MDIO_host_2_DP_AUX_CTL_PTR) |  MDIO_host_2_
ARM GAS  C:\Users\kopusov.FT\AppData\Local\Temp\ccYZzYXp.s 			page 7


 114              		.loc 1 229 0
 115 0000 0B4A     		ldr	r2, .L11
 116 0002 1388     		ldrh	r3, [r2]
 117 0004 9BB2     		uxth	r3, r3
 118 0006 43F48073 		orr	r3, r3, #256
 119 000a 43F00103 		orr	r3, r3, #1
 120 000e 1380     		strh	r3, [r2]	@ movhi
 230:Generated_Source\PSoC5/MDIO_host_2_my.c ****     CY_SET_REG16(MDIO_host_2_DP_AUX_CTL_PTR, (CY_GET_REG16(MDIO_host_2_DP_AUX_CTL_PTR) & ~MDIO_host
 121              		.loc 1 230 0
 122 0010 1388     		ldrh	r3, [r2]
 123 0012 9BB2     		uxth	r3, r3
 124 0014 23F48073 		bic	r3, r3, #256
 125 0018 23F00103 		bic	r3, r3, #1
 126 001c 9BB2     		uxth	r3, r3
 127 001e 1380     		strh	r3, [r2]	@ movhi
 231:Generated_Source\PSoC5/MDIO_host_2_my.c **** 	
 232:Generated_Source\PSoC5/MDIO_host_2_my.c **** 	/* Reset F1 FIFO  */
 233:Generated_Source\PSoC5/MDIO_host_2_my.c **** 	CY_SET_REG16(MDIO_host_2_DP_AUX_CTL_PTR, (CY_GET_REG16(MDIO_host_2_DP_AUX_CTL_PTR) |  MDIO_host_2_
 128              		.loc 1 233 0
 129 0020 1388     		ldrh	r3, [r2]
 130 0022 9BB2     		uxth	r3, r3
 131 0024 43F40073 		orr	r3, r3, #512
 132 0028 43F00203 		orr	r3, r3, #2
 133 002c 1380     		strh	r3, [r2]	@ movhi
 134 002e 7047     		bx	lr
 135              	.L12:
 136              		.align	2
 137              	.L11:
 138 0030 96640040 		.word	1073767574
 139              		.cfi_endproc
 140              	.LFE68:
 141              		.size	MDIO_host_2_ClearInternalFIFOs, .-MDIO_host_2_ClearInternalFIFOs
 142              		.section	.text.MDIO_host_2_Init,"ax",%progbits
 143              		.align	2
 144              		.global	MDIO_host_2_Init
 145              		.thumb
 146              		.thumb_func
 147              		.type	MDIO_host_2_Init, %function
 148              	MDIO_host_2_Init:
 149              	.LFB65:
 100:Generated_Source\PSoC5/MDIO_host_2_my.c ****     MDIO_host_2_Enable();
 150              		.loc 1 100 0
 151              		.cfi_startproc
 152              		@ args = 0, pretend = 0, frame = 0
 153              		@ frame_needed = 0, uses_anonymous_args = 0
 154 0000 08B5     		push	{r3, lr}
 155              		.cfi_def_cfa_offset 8
 156              		.cfi_offset 3, -8
 157              		.cfi_offset 14, -4
 101:Generated_Source\PSoC5/MDIO_host_2_my.c **** 	
 158              		.loc 1 101 0
 159 0002 FFF7FEFF 		bl	MDIO_host_2_Enable
 160              	.LVL0:
 104:Generated_Source\PSoC5/MDIO_host_2_my.c **** 
 161              		.loc 1 104 0
 162 0006 FFF7FEFF 		bl	MDIO_host_2_ClearInternalFIFOs
 163              	.LVL1:
ARM GAS  C:\Users\kopusov.FT\AppData\Local\Temp\ccYZzYXp.s 			page 8


 164 000a 08BD     		pop	{r3, pc}
 165              		.cfi_endproc
 166              	.LFE65:
 167              		.size	MDIO_host_2_Init, .-MDIO_host_2_Init
 168              		.section	.text.MDIO_host_2_Start,"ax",%progbits
 169              		.align	2
 170              		.global	MDIO_host_2_Start
 171              		.thumb
 172              		.thumb_func
 173              		.type	MDIO_host_2_Start, %function
 174              	MDIO_host_2_Start:
 175              	.LFB63:
  47:Generated_Source\PSoC5/MDIO_host_2_my.c ****     /* If not already initialized, then initialize hardware and software */
 176              		.loc 1 47 0
 177              		.cfi_startproc
 178              		@ args = 0, pretend = 0, frame = 0
 179              		@ frame_needed = 0, uses_anonymous_args = 0
 180 0000 08B5     		push	{r3, lr}
 181              		.cfi_def_cfa_offset 8
 182              		.cfi_offset 3, -8
 183              		.cfi_offset 14, -4
  49:Generated_Source\PSoC5/MDIO_host_2_my.c ****     {
 184              		.loc 1 49 0
 185 0002 054B     		ldr	r3, .L18
 186 0004 5B78     		ldrb	r3, [r3, #1]	@ zero_extendqisi2
 187 0006 23B9     		cbnz	r3, .L16
  51:Generated_Source\PSoC5/MDIO_host_2_my.c ****         MDIO_host_2_initVar = 1u;
 188              		.loc 1 51 0
 189 0008 FFF7FEFF 		bl	MDIO_host_2_Init
 190              	.LVL2:
  52:Generated_Source\PSoC5/MDIO_host_2_my.c ****     }
 191              		.loc 1 52 0
 192 000c 0122     		movs	r2, #1
 193 000e 024B     		ldr	r3, .L18
 194 0010 5A70     		strb	r2, [r3, #1]
 195              	.L16:
  54:Generated_Source\PSoC5/MDIO_host_2_my.c **** }
 196              		.loc 1 54 0
 197 0012 FFF7FEFF 		bl	MDIO_host_2_Enable
 198              	.LVL3:
 199 0016 08BD     		pop	{r3, pc}
 200              	.L19:
 201              		.align	2
 202              	.L18:
 203 0018 00000000 		.word	.LANCHOR0
 204              		.cfi_endproc
 205              	.LFE63:
 206              		.size	MDIO_host_2_Start, .-MDIO_host_2_Start
 207              		.section	.text.MDIO_host_2_SetAddrC45,"ax",%progbits
 208              		.align	2
 209              		.global	MDIO_host_2_SetAddrC45
 210              		.thumb
 211              		.thumb_func
 212              		.type	MDIO_host_2_SetAddrC45, %function
 213              	MDIO_host_2_SetAddrC45:
 214              	.LFB69:
 234:Generated_Source\PSoC5/MDIO_host_2_my.c ****     //CY_SET_REG16(MDIO_host_2_DP_AUX_CTL_PTR, (CY_GET_REG16(MDIO_host_2_DP_AUX_CTL_PTR) & ~MDIO_ho
ARM GAS  C:\Users\kopusov.FT\AppData\Local\Temp\ccYZzYXp.s 			page 9


 235:Generated_Source\PSoC5/MDIO_host_2_my.c **** }
 236:Generated_Source\PSoC5/MDIO_host_2_my.c **** 
 237:Generated_Source\PSoC5/MDIO_host_2_my.c **** /*******************************************************************************
 238:Generated_Source\PSoC5/MDIO_host_2_my.c **** *
 239:Generated_Source\PSoC5/MDIO_host_2_my.c **** * MDIO_host_2_SetAddr_C45()
 240:Generated_Source\PSoC5/MDIO_host_2_my.c **** *
 241:Generated_Source\PSoC5/MDIO_host_2_my.c **** *******************************************************************************/
 242:Generated_Source\PSoC5/MDIO_host_2_my.c **** uint8 MDIO_host_2_SetAddrC45(uint8 phy_addr, uint8 dev_addr, uint16 reg_data) // Set Addr reg
 243:Generated_Source\PSoC5/MDIO_host_2_my.c **** {
 215              		.loc 1 243 0
 216              		.cfi_startproc
 217              		@ args = 0, pretend = 0, frame = 0
 218              		@ frame_needed = 0, uses_anonymous_args = 0
 219              		@ link register save eliminated.
 220              	.LVL4:
 221 0000 10B4     		push	{r4}
 222              		.cfi_def_cfa_offset 4
 223              		.cfi_offset 4, -4
 244:Generated_Source\PSoC5/MDIO_host_2_my.c ****    	uint16 control_bits;
 245:Generated_Source\PSoC5/MDIO_host_2_my.c **** 	uint8 status_reg;
 246:Generated_Source\PSoC5/MDIO_host_2_my.c **** 
 247:Generated_Source\PSoC5/MDIO_host_2_my.c **** 	/* Clear and Set the control register for writing */
 248:Generated_Source\PSoC5/MDIO_host_2_my.c **** 	MDIO_host_2_CONTROL_REG = MDIO_host_2_WRITE;
 224              		.loc 1 248 0
 225 0002 0024     		movs	r4, #0
 226 0004 094B     		ldr	r3, .L22
 227 0006 1C70     		strb	r4, [r3]
 249:Generated_Source\PSoC5/MDIO_host_2_my.c **** 		
 250:Generated_Source\PSoC5/MDIO_host_2_my.c ****     /* Set the control bits and write in the fifo f0 */
 251:Generated_Source\PSoC5/MDIO_host_2_my.c ****      control_bits = 0x0002+(((uint16)phy_addr)<<7)+(((uint16)dev_addr)<<2);
 228              		.loc 1 251 0
 229 0008 8900     		lsls	r1, r1, #2
 230              	.LVL5:
 231 000a 01EBC010 		add	r0, r1, r0, lsl #7
 232              	.LVL6:
 233 000e 811C     		adds	r1, r0, #2
 234 0010 89B2     		uxth	r1, r1
 235              	.LVL7:
 252:Generated_Source\PSoC5/MDIO_host_2_my.c ****     MDIO_host_2_FIFO_F0_REG = control_bits;
 236              		.loc 1 252 0
 237 0012 2F3B     		subs	r3, r3, #47
 238 0014 1980     		strh	r1, [r3]	@ movhi
 253:Generated_Source\PSoC5/MDIO_host_2_my.c ****     MDIO_host_2_FIFO_F0_REG = reg_data;
 239              		.loc 1 253 0
 240 0016 1A80     		strh	r2, [r3]	@ movhi
 254:Generated_Source\PSoC5/MDIO_host_2_my.c ****    
 255:Generated_Source\PSoC5/MDIO_host_2_my.c **** 	/* Clear hardware status register */
 256:Generated_Source\PSoC5/MDIO_host_2_my.c **** 	status_reg = MDIO_host_2_STATUS_REG;
 241              		.loc 1 256 0
 242 0018 2133     		adds	r3, r3, #33
 243 001a 1B78     		ldrb	r3, [r3]	@ zero_extendqisi2
 244              	.LVL8:
 257:Generated_Source\PSoC5/MDIO_host_2_my.c ****     
 258:Generated_Source\PSoC5/MDIO_host_2_my.c ****     return ((status_reg)? 0 : 1);
 245              		.loc 1 258 0
 246 001c 13F0FF0F 		tst	r3, #255
 259:Generated_Source\PSoC5/MDIO_host_2_my.c **** }
ARM GAS  C:\Users\kopusov.FT\AppData\Local\Temp\ccYZzYXp.s 			page 10


 247              		.loc 1 259 0
 248 0020 0CBF     		ite	eq
 249 0022 0120     		moveq	r0, #1
 250 0024 2046     		movne	r0, r4
 251 0026 5DF8044B 		ldr	r4, [sp], #4
 252              		.cfi_restore 4
 253              		.cfi_def_cfa_offset 0
 254 002a 7047     		bx	lr
 255              	.L23:
 256              		.align	2
 257              	.L22:
 258 002c 75640040 		.word	1073767541
 259              		.cfi_endproc
 260              	.LFE69:
 261              		.size	MDIO_host_2_SetAddrC45, .-MDIO_host_2_SetAddrC45
 262              		.section	.text.MDIO_host_2_WriteDataC45,"ax",%progbits
 263              		.align	2
 264              		.global	MDIO_host_2_WriteDataC45
 265              		.thumb
 266              		.thumb_func
 267              		.type	MDIO_host_2_WriteDataC45, %function
 268              	MDIO_host_2_WriteDataC45:
 269              	.LFB70:
 260:Generated_Source\PSoC5/MDIO_host_2_my.c **** 
 261:Generated_Source\PSoC5/MDIO_host_2_my.c **** /*******************************************************************************
 262:Generated_Source\PSoC5/MDIO_host_2_my.c **** *
 263:Generated_Source\PSoC5/MDIO_host_2_my.c **** * MDIO_host_2_WriteData_C45()
 264:Generated_Source\PSoC5/MDIO_host_2_my.c **** *
 265:Generated_Source\PSoC5/MDIO_host_2_my.c **** *******************************************************************************/
 266:Generated_Source\PSoC5/MDIO_host_2_my.c **** uint8 MDIO_host_2_WriteDataC45(uint8 phy_addr, uint8 dev_addr, uint16 reg_data) // Writes data to t
 267:Generated_Source\PSoC5/MDIO_host_2_my.c **** {
 270              		.loc 1 267 0
 271              		.cfi_startproc
 272              		@ args = 0, pretend = 0, frame = 0
 273              		@ frame_needed = 0, uses_anonymous_args = 0
 274              		@ link register save eliminated.
 275              	.LVL9:
 276 0000 10B4     		push	{r4}
 277              		.cfi_def_cfa_offset 4
 278              		.cfi_offset 4, -4
 268:Generated_Source\PSoC5/MDIO_host_2_my.c ****    	uint16	control_bits;
 269:Generated_Source\PSoC5/MDIO_host_2_my.c **** 	uint8   status_reg;
 270:Generated_Source\PSoC5/MDIO_host_2_my.c **** 
 271:Generated_Source\PSoC5/MDIO_host_2_my.c **** 	/* Clear and Set the control register for writing */
 272:Generated_Source\PSoC5/MDIO_host_2_my.c **** 	MDIO_host_2_CONTROL_REG = MDIO_host_2_WRITE;
 279              		.loc 1 272 0
 280 0002 0024     		movs	r4, #0
 281 0004 0A4B     		ldr	r3, .L26
 282 0006 1C70     		strb	r4, [r3]
 273:Generated_Source\PSoC5/MDIO_host_2_my.c **** 		
 274:Generated_Source\PSoC5/MDIO_host_2_my.c ****     /* Set the control bits and write in the fifo f0 */
 275:Generated_Source\PSoC5/MDIO_host_2_my.c ****      control_bits = 0x0002+((uint16)1<<12)+(((uint16)phy_addr)<<7)+(((uint16)dev_addr)<<2);
 283              		.loc 1 275 0
 284 0008 8900     		lsls	r1, r1, #2
 285              	.LVL10:
 286 000a 01EBC010 		add	r0, r1, r0, lsl #7
 287              	.LVL11:
ARM GAS  C:\Users\kopusov.FT\AppData\Local\Temp\ccYZzYXp.s 			page 11


 288 000e 00F58050 		add	r0, r0, #4096
 289 0012 0230     		adds	r0, r0, #2
 290 0014 80B2     		uxth	r0, r0
 291              	.LVL12:
 276:Generated_Source\PSoC5/MDIO_host_2_my.c ****     MDIO_host_2_FIFO_F0_REG = control_bits;
 292              		.loc 1 276 0
 293 0016 2F3B     		subs	r3, r3, #47
 294 0018 1880     		strh	r0, [r3]	@ movhi
 277:Generated_Source\PSoC5/MDIO_host_2_my.c ****     MDIO_host_2_FIFO_F0_REG = reg_data;
 295              		.loc 1 277 0
 296 001a 1A80     		strh	r2, [r3]	@ movhi
 278:Generated_Source\PSoC5/MDIO_host_2_my.c ****    
 279:Generated_Source\PSoC5/MDIO_host_2_my.c **** 	/* Clear hardware status register */
 280:Generated_Source\PSoC5/MDIO_host_2_my.c **** 	status_reg = MDIO_host_2_STATUS_REG;
 297              		.loc 1 280 0
 298 001c 2133     		adds	r3, r3, #33
 299 001e 1B78     		ldrb	r3, [r3]	@ zero_extendqisi2
 300              	.LVL13:
 281:Generated_Source\PSoC5/MDIO_host_2_my.c ****     
 282:Generated_Source\PSoC5/MDIO_host_2_my.c ****     return ((status_reg)? 0 : 1);
 301              		.loc 1 282 0
 302 0020 13F0FF0F 		tst	r3, #255
 283:Generated_Source\PSoC5/MDIO_host_2_my.c **** }
 303              		.loc 1 283 0
 304 0024 0CBF     		ite	eq
 305 0026 0120     		moveq	r0, #1
 306              	.LVL14:
 307 0028 2046     		movne	r0, r4
 308 002a 5DF8044B 		ldr	r4, [sp], #4
 309              		.cfi_restore 4
 310              		.cfi_def_cfa_offset 0
 311 002e 7047     		bx	lr
 312              	.L27:
 313              		.align	2
 314              	.L26:
 315 0030 75640040 		.word	1073767541
 316              		.cfi_endproc
 317              	.LFE70:
 318              		.size	MDIO_host_2_WriteDataC45, .-MDIO_host_2_WriteDataC45
 319              		.section	.text.MDIO_host_2_ReadDataC45,"ax",%progbits
 320              		.align	2
 321              		.global	MDIO_host_2_ReadDataC45
 322              		.thumb
 323              		.thumb_func
 324              		.type	MDIO_host_2_ReadDataC45, %function
 325              	MDIO_host_2_ReadDataC45:
 326              	.LFB71:
 284:Generated_Source\PSoC5/MDIO_host_2_my.c **** 
 285:Generated_Source\PSoC5/MDIO_host_2_my.c **** 
 286:Generated_Source\PSoC5/MDIO_host_2_my.c **** /*******************************************************************************
 287:Generated_Source\PSoC5/MDIO_host_2_my.c **** *
 288:Generated_Source\PSoC5/MDIO_host_2_my.c **** * MDIO_host_2_ReadData_C45()
 289:Generated_Source\PSoC5/MDIO_host_2_my.c **** *
 290:Generated_Source\PSoC5/MDIO_host_2_my.c **** *******************************************************************************/
 291:Generated_Source\PSoC5/MDIO_host_2_my.c **** uint8 MDIO_host_2_ReadDataC45(uint8 phy_addr, uint8 dev_addr, uint16 *regData) // Read data from th
 292:Generated_Source\PSoC5/MDIO_host_2_my.c **** {
 327              		.loc 1 292 0
ARM GAS  C:\Users\kopusov.FT\AppData\Local\Temp\ccYZzYXp.s 			page 12


 328              		.cfi_startproc
 329              		@ args = 0, pretend = 0, frame = 0
 330              		@ frame_needed = 0, uses_anonymous_args = 0
 331              		@ link register save eliminated.
 332              	.LVL15:
 293:Generated_Source\PSoC5/MDIO_host_2_my.c ****    	uint16	control_bits;
 294:Generated_Source\PSoC5/MDIO_host_2_my.c **** 	uint8 status_reg;
 295:Generated_Source\PSoC5/MDIO_host_2_my.c **** 
 296:Generated_Source\PSoC5/MDIO_host_2_my.c **** 	/* Clear and Set the control register for writing */
 297:Generated_Source\PSoC5/MDIO_host_2_my.c **** //	MDIO_host_2_CONTROL_REG &= MDIO_host_2_ENABLE;
 298:Generated_Source\PSoC5/MDIO_host_2_my.c **** //	MDIO_host_2_CONTROL_REG |= MDIO_host_2_READ;
 299:Generated_Source\PSoC5/MDIO_host_2_my.c **** 	
 300:Generated_Source\PSoC5/MDIO_host_2_my.c ****    	/* Set the control bits and write in the fifo f0 */
 301:Generated_Source\PSoC5/MDIO_host_2_my.c ****    	control_bits = 0x0002+((uint16)3<<12)+(((uint16)phy_addr)<<7)+(((uint16)dev_addr)<<2);
 333              		.loc 1 301 0
 334 0000 8900     		lsls	r1, r1, #2
 335              	.LVL16:
 336 0002 01EBC010 		add	r0, r1, r0, lsl #7
 337              	.LVL17:
 338 0006 00F54050 		add	r0, r0, #12288
 339 000a 0230     		adds	r0, r0, #2
 340 000c 80B2     		uxth	r0, r0
 341              	.LVL18:
 302:Generated_Source\PSoC5/MDIO_host_2_my.c ****    	MDIO_host_2_FIFO_F0_REG = control_bits;
 342              		.loc 1 302 0
 343 000e 084B     		ldr	r3, .L29
 344 0010 1880     		strh	r0, [r3]	@ movhi
 303:Generated_Source\PSoC5/MDIO_host_2_my.c ****     MDIO_host_2_FIFO_F0_REG = 0xFFFF;
 345              		.loc 1 303 0
 346 0012 4FF6FF71 		movw	r1, #65535
 347 0016 1980     		strh	r1, [r3]	@ movhi
 304:Generated_Source\PSoC5/MDIO_host_2_my.c ****     
 305:Generated_Source\PSoC5/MDIO_host_2_my.c ****     /* Wait till the transmission is completed */
 306:Generated_Source\PSoC5/MDIO_host_2_my.c **** 	//while( MDIO_host_2_STATUS_REG != MDIO_host_2_CMPLT );
 307:Generated_Source\PSoC5/MDIO_host_2_my.c ****     
 308:Generated_Source\PSoC5/MDIO_host_2_my.c ****    /* Get Data from FIFO f1 */
 309:Generated_Source\PSoC5/MDIO_host_2_my.c **** 	*regData = CY_GET_REG16(MDIO_host_2_FIFO_F1_PTR);
 348              		.loc 1 309 0
 349 0018 1033     		adds	r3, r3, #16
 350 001a 1B88     		ldrh	r3, [r3]
 351 001c 1380     		strh	r3, [r2]	@ movhi
 310:Generated_Source\PSoC5/MDIO_host_2_my.c **** 	
 311:Generated_Source\PSoC5/MDIO_host_2_my.c ****     /* Clear hardware status register */
 312:Generated_Source\PSoC5/MDIO_host_2_my.c **** 	status_reg = MDIO_host_2_STATUS_REG;
 352              		.loc 1 312 0
 353 001e 054B     		ldr	r3, .L29+4
 354 0020 1B78     		ldrb	r3, [r3]	@ zero_extendqisi2
 355              	.LVL19:
 313:Generated_Source\PSoC5/MDIO_host_2_my.c **** 	return ((status_reg)? 0 : 1);
 356              		.loc 1 313 0
 357 0022 13F0FF0F 		tst	r3, #255
 314:Generated_Source\PSoC5/MDIO_host_2_my.c ****     
 315:Generated_Source\PSoC5/MDIO_host_2_my.c **** }
 358              		.loc 1 315 0
 359 0026 0CBF     		ite	eq
 360 0028 0120     		moveq	r0, #1
 361              	.LVL20:
ARM GAS  C:\Users\kopusov.FT\AppData\Local\Temp\ccYZzYXp.s 			page 13


 362 002a 0020     		movne	r0, #0
 363 002c 7047     		bx	lr
 364              	.L30:
 365 002e 00BF     		.align	2
 366              	.L29:
 367 0030 46640040 		.word	1073767494
 368 0034 67640040 		.word	1073767527
 369              		.cfi_endproc
 370              	.LFE71:
 371              		.size	MDIO_host_2_ReadDataC45, .-MDIO_host_2_ReadDataC45
 372              		.section	.text.MDIO_host_2_ClearStatus,"ax",%progbits
 373              		.align	2
 374              		.global	MDIO_host_2_ClearStatus
 375              		.thumb
 376              		.thumb_func
 377              		.type	MDIO_host_2_ClearStatus, %function
 378              	MDIO_host_2_ClearStatus:
 379              	.LFB72:
 316:Generated_Source\PSoC5/MDIO_host_2_my.c **** 
 317:Generated_Source\PSoC5/MDIO_host_2_my.c **** /*******************************************************************************
 318:Generated_Source\PSoC5/MDIO_host_2_my.c **** *
 319:Generated_Source\PSoC5/MDIO_host_2_my.c **** * MDIO_Host__ClearStatus()
 320:Generated_Source\PSoC5/MDIO_host_2_my.c **** *
 321:Generated_Source\PSoC5/MDIO_host_2_my.c **** *******************************************************************************/
 322:Generated_Source\PSoC5/MDIO_host_2_my.c **** void  MDIO_host_2_ClearStatus(void)
 323:Generated_Source\PSoC5/MDIO_host_2_my.c **** {
 380              		.loc 1 323 0
 381              		.cfi_startproc
 382              		@ args = 0, pretend = 0, frame = 0
 383              		@ frame_needed = 0, uses_anonymous_args = 0
 384              		@ link register save eliminated.
 324:Generated_Source\PSoC5/MDIO_host_2_my.c **** 	MDIO_host_2_StatusRegister = 0x00u;
 385              		.loc 1 324 0
 386 0000 0022     		movs	r2, #0
 387 0002 014B     		ldr	r3, .L32
 388 0004 1A70     		strb	r2, [r3]
 389 0006 7047     		bx	lr
 390              	.L33:
 391              		.align	2
 392              	.L32:
 393 0008 00000000 		.word	.LANCHOR0
 394              		.cfi_endproc
 395              	.LFE72:
 396              		.size	MDIO_host_2_ClearStatus, .-MDIO_host_2_ClearStatus
 397              		.global	MDIO_host_2_StatusRegister
 398              		.global	MDIO_host_2_data_bits
 399              		.global	MDIO_host_2_initVar
 400              		.bss
 401              		.align	1
 402              		.set	.LANCHOR0,. + 0
 403              		.type	MDIO_host_2_StatusRegister, %object
 404              		.size	MDIO_host_2_StatusRegister, 1
 405              	MDIO_host_2_StatusRegister:
 406 0000 00       		.space	1
 407              		.type	MDIO_host_2_initVar, %object
 408              		.size	MDIO_host_2_initVar, 1
 409              	MDIO_host_2_initVar:
ARM GAS  C:\Users\kopusov.FT\AppData\Local\Temp\ccYZzYXp.s 			page 14


 410 0001 00       		.space	1
 411              		.type	MDIO_host_2_data_bits, %object
 412              		.size	MDIO_host_2_data_bits, 2
 413              	MDIO_host_2_data_bits:
 414 0002 0000     		.space	2
 415              		.text
 416              	.Letext0:
 417              		.file 2 "c:\\program files (x86)\\cypress\\psoc creator\\4.0\\psoc creator\\import\\gnu\\arm\\4.9.
 418              		.file 3 "c:\\program files (x86)\\cypress\\psoc creator\\4.0\\psoc creator\\import\\gnu\\arm\\4.9.
 419              		.file 4 "Generated_Source\\PSoC5/cytypes.h"
 420              		.file 5 "Generated_Source\\PSoC5/core_cm3.h"